
ECU.elf:     file format elf32-avr

Sections:
Idx Name          Size      VMA       LMA       File off  Algn
  0 .data         0000010e  00800100  00002d42  00002dd6  2**0
                  CONTENTS, ALLOC, LOAD, DATA
  1 .text         00002d42  00000000  00000000  00000094  2**1
                  CONTENTS, ALLOC, LOAD, READONLY, CODE
  2 .bss          00000021  0080020e  0080020e  00002ee4  2**0
                  ALLOC
  3 .stab         00002424  00000000  00000000  00002ee4  2**2
                  CONTENTS, READONLY, DEBUGGING
  4 .stabstr      000018f5  00000000  00000000  00005308  2**0
                  CONTENTS, READONLY, DEBUGGING
  5 .debug_aranges 000001a0  00000000  00000000  00006bfd  2**0
                  CONTENTS, READONLY, DEBUGGING
  6 .debug_pubnames 000001f2  00000000  00000000  00006d9d  2**0
                  CONTENTS, READONLY, DEBUGGING
  7 .debug_info   0000240b  00000000  00000000  00006f8f  2**0
                  CONTENTS, READONLY, DEBUGGING
  8 .debug_abbrev 00001386  00000000  00000000  0000939a  2**0
                  CONTENTS, READONLY, DEBUGGING
  9 .debug_line   000011d6  00000000  00000000  0000a720  2**0
                  CONTENTS, READONLY, DEBUGGING
 10 .debug_frame  000001c0  00000000  00000000  0000b8f8  2**2
                  CONTENTS, READONLY, DEBUGGING
 11 .debug_str    000002f7  00000000  00000000  0000bab8  2**0
                  CONTENTS, READONLY, DEBUGGING
 12 .debug_loc    0000096e  00000000  00000000  0000bdaf  2**0
                  CONTENTS, READONLY, DEBUGGING
 13 .debug_ranges 00000050  00000000  00000000  0000c71d  2**0
                  CONTENTS, READONLY, DEBUGGING

Disassembly of section .text:

00000000 <__vectors>:
       0:	0c 94 46 00 	jmp	0x8c	; 0x8c <__ctors_end>
       4:	0c 94 65 00 	jmp	0xca	; 0xca <__bad_interrupt>
       8:	0c 94 65 00 	jmp	0xca	; 0xca <__bad_interrupt>
       c:	0c 94 65 00 	jmp	0xca	; 0xca <__bad_interrupt>
      10:	0c 94 65 00 	jmp	0xca	; 0xca <__bad_interrupt>
      14:	0c 94 65 00 	jmp	0xca	; 0xca <__bad_interrupt>
      18:	0c 94 65 00 	jmp	0xca	; 0xca <__bad_interrupt>
      1c:	0c 94 65 00 	jmp	0xca	; 0xca <__bad_interrupt>
      20:	0c 94 65 00 	jmp	0xca	; 0xca <__bad_interrupt>
      24:	0c 94 3f 0c 	jmp	0x187e	; 0x187e <__vector_9>
      28:	0c 94 78 0c 	jmp	0x18f0	; 0x18f0 <__vector_10>
      2c:	0c 94 fd 09 	jmp	0x13fa	; 0x13fa <__vector_11>
      30:	0c 94 b1 0c 	jmp	0x1962	; 0x1962 <__vector_12>
      34:	0c 94 ea 0c 	jmp	0x19d4	; 0x19d4 <__vector_13>
      38:	0c 94 5c 0d 	jmp	0x1ab8	; 0x1ab8 <__vector_14>
      3c:	0c 94 cd 0b 	jmp	0x179a	; 0x179a <__vector_15>
      40:	0c 94 06 0c 	jmp	0x180c	; 0x180c <__vector_16>
      44:	0c 94 65 00 	jmp	0xca	; 0xca <__bad_interrupt>
      48:	0c 94 65 00 	jmp	0xca	; 0xca <__bad_interrupt>
      4c:	0c 94 65 00 	jmp	0xca	; 0xca <__bad_interrupt>
      50:	0c 94 65 00 	jmp	0xca	; 0xca <__bad_interrupt>
      54:	0c 94 65 00 	jmp	0xca	; 0xca <__bad_interrupt>
      58:	0c 94 65 00 	jmp	0xca	; 0xca <__bad_interrupt>
      5c:	0c 94 65 00 	jmp	0xca	; 0xca <__bad_interrupt>
      60:	0c 94 23 0d 	jmp	0x1a46	; 0x1a46 <__vector_24>
      64:	0c 94 36 0a 	jmp	0x146c	; 0x146c <__vector_25>
      68:	0c 94 95 0d 	jmp	0x1b2a	; 0x1b2a <__vector_26>
      6c:	0c 94 ce 0d 	jmp	0x1b9c	; 0x1b9c <__vector_27>
      70:	0c 94 07 0e 	jmp	0x1c0e	; 0x1c0e <__vector_28>
      74:	0c 94 40 0e 	jmp	0x1c80	; 0x1c80 <__vector_29>
      78:	0c 94 65 00 	jmp	0xca	; 0xca <__bad_interrupt>
      7c:	0c 94 65 00 	jmp	0xca	; 0xca <__bad_interrupt>
      80:	0c 94 65 00 	jmp	0xca	; 0xca <__bad_interrupt>
      84:	0c 94 65 00 	jmp	0xca	; 0xca <__bad_interrupt>
      88:	0c 94 65 00 	jmp	0xca	; 0xca <__bad_interrupt>

0000008c <__ctors_end>:
      8c:	11 24       	eor	r1, r1
      8e:	1f be       	out	0x3f, r1	; 63
      90:	cf ef       	ldi	r28, 0xFF	; 255
      92:	d0 e1       	ldi	r29, 0x10	; 16
      94:	de bf       	out	0x3e, r29	; 62
      96:	cd bf       	out	0x3d, r28	; 61

00000098 <__do_copy_data>:
      98:	12 e0       	ldi	r17, 0x02	; 2
      9a:	a0 e0       	ldi	r26, 0x00	; 0
      9c:	b1 e0       	ldi	r27, 0x01	; 1
      9e:	e2 e4       	ldi	r30, 0x42	; 66
      a0:	fd e2       	ldi	r31, 0x2D	; 45
      a2:	00 e0       	ldi	r16, 0x00	; 0
      a4:	0b bf       	out	0x3b, r16	; 59
      a6:	02 c0       	rjmp	.+4      	; 0xac <__do_copy_data+0x14>
      a8:	07 90       	elpm	r0, Z+
      aa:	0d 92       	st	X+, r0
      ac:	ae 30       	cpi	r26, 0x0E	; 14
      ae:	b1 07       	cpc	r27, r17
      b0:	d9 f7       	brne	.-10     	; 0xa8 <__do_copy_data+0x10>

000000b2 <__do_clear_bss>:
      b2:	12 e0       	ldi	r17, 0x02	; 2
      b4:	ae e0       	ldi	r26, 0x0E	; 14
      b6:	b2 e0       	ldi	r27, 0x02	; 2
      b8:	01 c0       	rjmp	.+2      	; 0xbc <.do_clear_bss_start>

000000ba <.do_clear_bss_loop>:
      ba:	1d 92       	st	X+, r1

000000bc <.do_clear_bss_start>:
      bc:	af 32       	cpi	r26, 0x2F	; 47
      be:	b1 07       	cpc	r27, r17
      c0:	e1 f7       	brne	.-8      	; 0xba <.do_clear_bss_loop>
      c2:	0e 94 35 07 	call	0xe6a	; 0xe6a <main>
      c6:	0c 94 9f 16 	jmp	0x2d3e	; 0x2d3e <_exit>

000000ca <__bad_interrupt>:
      ca:	0c 94 00 00 	jmp	0	; 0x0 <__vectors>

000000ce <__fixunssfsi>:
      ce:	ef 92       	push	r14
      d0:	ff 92       	push	r15
      d2:	0f 93       	push	r16
      d4:	1f 93       	push	r17
      d6:	7b 01       	movw	r14, r22
      d8:	8c 01       	movw	r16, r24
      da:	20 e0       	ldi	r18, 0x00	; 0
      dc:	30 e0       	ldi	r19, 0x00	; 0
      de:	40 e0       	ldi	r20, 0x00	; 0
      e0:	5f e4       	ldi	r21, 0x4F	; 79
      e2:	0e 94 13 04 	call	0x826	; 0x826 <__gesf2>
      e6:	88 23       	and	r24, r24
      e8:	8c f0       	brlt	.+34     	; 0x10c <__fixunssfsi+0x3e>
      ea:	c8 01       	movw	r24, r16
      ec:	b7 01       	movw	r22, r14
      ee:	20 e0       	ldi	r18, 0x00	; 0
      f0:	30 e0       	ldi	r19, 0x00	; 0
      f2:	40 e0       	ldi	r20, 0x00	; 0
      f4:	5f e4       	ldi	r21, 0x4F	; 79
      f6:	0e 94 df 01 	call	0x3be	; 0x3be <__subsf3>
      fa:	0e 94 73 04 	call	0x8e6	; 0x8e6 <__fixsfsi>
      fe:	9b 01       	movw	r18, r22
     100:	ac 01       	movw	r20, r24
     102:	20 50       	subi	r18, 0x00	; 0
     104:	30 40       	sbci	r19, 0x00	; 0
     106:	40 40       	sbci	r20, 0x00	; 0
     108:	50 48       	sbci	r21, 0x80	; 128
     10a:	06 c0       	rjmp	.+12     	; 0x118 <__fixunssfsi+0x4a>
     10c:	c8 01       	movw	r24, r16
     10e:	b7 01       	movw	r22, r14
     110:	0e 94 73 04 	call	0x8e6	; 0x8e6 <__fixsfsi>
     114:	9b 01       	movw	r18, r22
     116:	ac 01       	movw	r20, r24
     118:	b9 01       	movw	r22, r18
     11a:	ca 01       	movw	r24, r20
     11c:	1f 91       	pop	r17
     11e:	0f 91       	pop	r16
     120:	ff 90       	pop	r15
     122:	ef 90       	pop	r14
     124:	08 95       	ret

00000126 <_fpadd_parts>:
     126:	a0 e0       	ldi	r26, 0x00	; 0
     128:	b0 e0       	ldi	r27, 0x00	; 0
     12a:	e9 e9       	ldi	r30, 0x99	; 153
     12c:	f0 e0       	ldi	r31, 0x00	; 0
     12e:	0c 94 68 16 	jmp	0x2cd0	; 0x2cd0 <__prologue_saves__>
     132:	dc 01       	movw	r26, r24
     134:	2b 01       	movw	r4, r22
     136:	fa 01       	movw	r30, r20
     138:	9c 91       	ld	r25, X
     13a:	92 30       	cpi	r25, 0x02	; 2
     13c:	08 f4       	brcc	.+2      	; 0x140 <_fpadd_parts+0x1a>
     13e:	39 c1       	rjmp	.+626    	; 0x3b2 <_fpadd_parts+0x28c>
     140:	eb 01       	movw	r28, r22
     142:	88 81       	ld	r24, Y
     144:	82 30       	cpi	r24, 0x02	; 2
     146:	08 f4       	brcc	.+2      	; 0x14a <_fpadd_parts+0x24>
     148:	33 c1       	rjmp	.+614    	; 0x3b0 <_fpadd_parts+0x28a>
     14a:	94 30       	cpi	r25, 0x04	; 4
     14c:	69 f4       	brne	.+26     	; 0x168 <_fpadd_parts+0x42>
     14e:	84 30       	cpi	r24, 0x04	; 4
     150:	09 f0       	breq	.+2      	; 0x154 <_fpadd_parts+0x2e>
     152:	2f c1       	rjmp	.+606    	; 0x3b2 <_fpadd_parts+0x28c>
     154:	11 96       	adiw	r26, 0x01	; 1
     156:	9c 91       	ld	r25, X
     158:	11 97       	sbiw	r26, 0x01	; 1
     15a:	89 81       	ldd	r24, Y+1	; 0x01
     15c:	98 17       	cp	r25, r24
     15e:	09 f4       	brne	.+2      	; 0x162 <_fpadd_parts+0x3c>
     160:	28 c1       	rjmp	.+592    	; 0x3b2 <_fpadd_parts+0x28c>
     162:	a0 e0       	ldi	r26, 0x00	; 0
     164:	b1 e0       	ldi	r27, 0x01	; 1
     166:	25 c1       	rjmp	.+586    	; 0x3b2 <_fpadd_parts+0x28c>
     168:	84 30       	cpi	r24, 0x04	; 4
     16a:	09 f4       	brne	.+2      	; 0x16e <_fpadd_parts+0x48>
     16c:	21 c1       	rjmp	.+578    	; 0x3b0 <_fpadd_parts+0x28a>
     16e:	82 30       	cpi	r24, 0x02	; 2
     170:	a9 f4       	brne	.+42     	; 0x19c <_fpadd_parts+0x76>
     172:	92 30       	cpi	r25, 0x02	; 2
     174:	09 f0       	breq	.+2      	; 0x178 <_fpadd_parts+0x52>
     176:	1d c1       	rjmp	.+570    	; 0x3b2 <_fpadd_parts+0x28c>
     178:	9a 01       	movw	r18, r20
     17a:	ad 01       	movw	r20, r26
     17c:	88 e0       	ldi	r24, 0x08	; 8
     17e:	ea 01       	movw	r28, r20
     180:	09 90       	ld	r0, Y+
     182:	ae 01       	movw	r20, r28
     184:	e9 01       	movw	r28, r18
     186:	09 92       	st	Y+, r0
     188:	9e 01       	movw	r18, r28
     18a:	81 50       	subi	r24, 0x01	; 1
     18c:	c1 f7       	brne	.-16     	; 0x17e <_fpadd_parts+0x58>
     18e:	e2 01       	movw	r28, r4
     190:	89 81       	ldd	r24, Y+1	; 0x01
     192:	11 96       	adiw	r26, 0x01	; 1
     194:	9c 91       	ld	r25, X
     196:	89 23       	and	r24, r25
     198:	81 83       	std	Z+1, r24	; 0x01
     19a:	08 c1       	rjmp	.+528    	; 0x3ac <_fpadd_parts+0x286>
     19c:	92 30       	cpi	r25, 0x02	; 2
     19e:	09 f4       	brne	.+2      	; 0x1a2 <_fpadd_parts+0x7c>
     1a0:	07 c1       	rjmp	.+526    	; 0x3b0 <_fpadd_parts+0x28a>
     1a2:	12 96       	adiw	r26, 0x02	; 2
     1a4:	2d 90       	ld	r2, X+
     1a6:	3c 90       	ld	r3, X
     1a8:	13 97       	sbiw	r26, 0x03	; 3
     1aa:	eb 01       	movw	r28, r22
     1ac:	8a 81       	ldd	r24, Y+2	; 0x02
     1ae:	9b 81       	ldd	r25, Y+3	; 0x03
     1b0:	14 96       	adiw	r26, 0x04	; 4
     1b2:	ad 90       	ld	r10, X+
     1b4:	bd 90       	ld	r11, X+
     1b6:	cd 90       	ld	r12, X+
     1b8:	dc 90       	ld	r13, X
     1ba:	17 97       	sbiw	r26, 0x07	; 7
     1bc:	ec 80       	ldd	r14, Y+4	; 0x04
     1be:	fd 80       	ldd	r15, Y+5	; 0x05
     1c0:	0e 81       	ldd	r16, Y+6	; 0x06
     1c2:	1f 81       	ldd	r17, Y+7	; 0x07
     1c4:	91 01       	movw	r18, r2
     1c6:	28 1b       	sub	r18, r24
     1c8:	39 0b       	sbc	r19, r25
     1ca:	b9 01       	movw	r22, r18
     1cc:	37 ff       	sbrs	r19, 7
     1ce:	04 c0       	rjmp	.+8      	; 0x1d8 <_fpadd_parts+0xb2>
     1d0:	66 27       	eor	r22, r22
     1d2:	77 27       	eor	r23, r23
     1d4:	62 1b       	sub	r22, r18
     1d6:	73 0b       	sbc	r23, r19
     1d8:	60 32       	cpi	r22, 0x20	; 32
     1da:	71 05       	cpc	r23, r1
     1dc:	0c f0       	brlt	.+2      	; 0x1e0 <_fpadd_parts+0xba>
     1de:	61 c0       	rjmp	.+194    	; 0x2a2 <_fpadd_parts+0x17c>
     1e0:	12 16       	cp	r1, r18
     1e2:	13 06       	cpc	r1, r19
     1e4:	6c f5       	brge	.+90     	; 0x240 <_fpadd_parts+0x11a>
     1e6:	37 01       	movw	r6, r14
     1e8:	48 01       	movw	r8, r16
     1ea:	06 2e       	mov	r0, r22
     1ec:	04 c0       	rjmp	.+8      	; 0x1f6 <_fpadd_parts+0xd0>
     1ee:	96 94       	lsr	r9
     1f0:	87 94       	ror	r8
     1f2:	77 94       	ror	r7
     1f4:	67 94       	ror	r6
     1f6:	0a 94       	dec	r0
     1f8:	d2 f7       	brpl	.-12     	; 0x1ee <_fpadd_parts+0xc8>
     1fa:	21 e0       	ldi	r18, 0x01	; 1
     1fc:	30 e0       	ldi	r19, 0x00	; 0
     1fe:	40 e0       	ldi	r20, 0x00	; 0
     200:	50 e0       	ldi	r21, 0x00	; 0
     202:	04 c0       	rjmp	.+8      	; 0x20c <_fpadd_parts+0xe6>
     204:	22 0f       	add	r18, r18
     206:	33 1f       	adc	r19, r19
     208:	44 1f       	adc	r20, r20
     20a:	55 1f       	adc	r21, r21
     20c:	6a 95       	dec	r22
     20e:	d2 f7       	brpl	.-12     	; 0x204 <_fpadd_parts+0xde>
     210:	21 50       	subi	r18, 0x01	; 1
     212:	30 40       	sbci	r19, 0x00	; 0
     214:	40 40       	sbci	r20, 0x00	; 0
     216:	50 40       	sbci	r21, 0x00	; 0
     218:	2e 21       	and	r18, r14
     21a:	3f 21       	and	r19, r15
     21c:	40 23       	and	r20, r16
     21e:	51 23       	and	r21, r17
     220:	21 15       	cp	r18, r1
     222:	31 05       	cpc	r19, r1
     224:	41 05       	cpc	r20, r1
     226:	51 05       	cpc	r21, r1
     228:	21 f0       	breq	.+8      	; 0x232 <_fpadd_parts+0x10c>
     22a:	21 e0       	ldi	r18, 0x01	; 1
     22c:	30 e0       	ldi	r19, 0x00	; 0
     22e:	40 e0       	ldi	r20, 0x00	; 0
     230:	50 e0       	ldi	r21, 0x00	; 0
     232:	79 01       	movw	r14, r18
     234:	8a 01       	movw	r16, r20
     236:	e6 28       	or	r14, r6
     238:	f7 28       	or	r15, r7
     23a:	08 29       	or	r16, r8
     23c:	19 29       	or	r17, r9
     23e:	3c c0       	rjmp	.+120    	; 0x2b8 <_fpadd_parts+0x192>
     240:	23 2b       	or	r18, r19
     242:	d1 f1       	breq	.+116    	; 0x2b8 <_fpadd_parts+0x192>
     244:	26 0e       	add	r2, r22
     246:	37 1e       	adc	r3, r23
     248:	35 01       	movw	r6, r10
     24a:	46 01       	movw	r8, r12
     24c:	06 2e       	mov	r0, r22
     24e:	04 c0       	rjmp	.+8      	; 0x258 <_fpadd_parts+0x132>
     250:	96 94       	lsr	r9
     252:	87 94       	ror	r8
     254:	77 94       	ror	r7
     256:	67 94       	ror	r6
     258:	0a 94       	dec	r0
     25a:	d2 f7       	brpl	.-12     	; 0x250 <_fpadd_parts+0x12a>
     25c:	21 e0       	ldi	r18, 0x01	; 1
     25e:	30 e0       	ldi	r19, 0x00	; 0
     260:	40 e0       	ldi	r20, 0x00	; 0
     262:	50 e0       	ldi	r21, 0x00	; 0
     264:	04 c0       	rjmp	.+8      	; 0x26e <_fpadd_parts+0x148>
     266:	22 0f       	add	r18, r18
     268:	33 1f       	adc	r19, r19
     26a:	44 1f       	adc	r20, r20
     26c:	55 1f       	adc	r21, r21
     26e:	6a 95       	dec	r22
     270:	d2 f7       	brpl	.-12     	; 0x266 <_fpadd_parts+0x140>
     272:	21 50       	subi	r18, 0x01	; 1
     274:	30 40       	sbci	r19, 0x00	; 0
     276:	40 40       	sbci	r20, 0x00	; 0
     278:	50 40       	sbci	r21, 0x00	; 0
     27a:	2a 21       	and	r18, r10
     27c:	3b 21       	and	r19, r11
     27e:	4c 21       	and	r20, r12
     280:	5d 21       	and	r21, r13
     282:	21 15       	cp	r18, r1
     284:	31 05       	cpc	r19, r1
     286:	41 05       	cpc	r20, r1
     288:	51 05       	cpc	r21, r1
     28a:	21 f0       	breq	.+8      	; 0x294 <_fpadd_parts+0x16e>
     28c:	21 e0       	ldi	r18, 0x01	; 1
     28e:	30 e0       	ldi	r19, 0x00	; 0
     290:	40 e0       	ldi	r20, 0x00	; 0
     292:	50 e0       	ldi	r21, 0x00	; 0
     294:	59 01       	movw	r10, r18
     296:	6a 01       	movw	r12, r20
     298:	a6 28       	or	r10, r6
     29a:	b7 28       	or	r11, r7
     29c:	c8 28       	or	r12, r8
     29e:	d9 28       	or	r13, r9
     2a0:	0b c0       	rjmp	.+22     	; 0x2b8 <_fpadd_parts+0x192>
     2a2:	82 15       	cp	r24, r2
     2a4:	93 05       	cpc	r25, r3
     2a6:	2c f0       	brlt	.+10     	; 0x2b2 <_fpadd_parts+0x18c>
     2a8:	1c 01       	movw	r2, r24
     2aa:	aa 24       	eor	r10, r10
     2ac:	bb 24       	eor	r11, r11
     2ae:	65 01       	movw	r12, r10
     2b0:	03 c0       	rjmp	.+6      	; 0x2b8 <_fpadd_parts+0x192>
     2b2:	ee 24       	eor	r14, r14
     2b4:	ff 24       	eor	r15, r15
     2b6:	87 01       	movw	r16, r14
     2b8:	11 96       	adiw	r26, 0x01	; 1
     2ba:	9c 91       	ld	r25, X
     2bc:	d2 01       	movw	r26, r4
     2be:	11 96       	adiw	r26, 0x01	; 1
     2c0:	8c 91       	ld	r24, X
     2c2:	98 17       	cp	r25, r24
     2c4:	09 f4       	brne	.+2      	; 0x2c8 <_fpadd_parts+0x1a2>
     2c6:	45 c0       	rjmp	.+138    	; 0x352 <_fpadd_parts+0x22c>
     2c8:	99 23       	and	r25, r25
     2ca:	39 f0       	breq	.+14     	; 0x2da <_fpadd_parts+0x1b4>
     2cc:	a8 01       	movw	r20, r16
     2ce:	97 01       	movw	r18, r14
     2d0:	2a 19       	sub	r18, r10
     2d2:	3b 09       	sbc	r19, r11
     2d4:	4c 09       	sbc	r20, r12
     2d6:	5d 09       	sbc	r21, r13
     2d8:	06 c0       	rjmp	.+12     	; 0x2e6 <_fpadd_parts+0x1c0>
     2da:	a6 01       	movw	r20, r12
     2dc:	95 01       	movw	r18, r10
     2de:	2e 19       	sub	r18, r14
     2e0:	3f 09       	sbc	r19, r15
     2e2:	40 0b       	sbc	r20, r16
     2e4:	51 0b       	sbc	r21, r17
     2e6:	57 fd       	sbrc	r21, 7
     2e8:	08 c0       	rjmp	.+16     	; 0x2fa <_fpadd_parts+0x1d4>
     2ea:	11 82       	std	Z+1, r1	; 0x01
     2ec:	33 82       	std	Z+3, r3	; 0x03
     2ee:	22 82       	std	Z+2, r2	; 0x02
     2f0:	24 83       	std	Z+4, r18	; 0x04
     2f2:	35 83       	std	Z+5, r19	; 0x05
     2f4:	46 83       	std	Z+6, r20	; 0x06
     2f6:	57 83       	std	Z+7, r21	; 0x07
     2f8:	1d c0       	rjmp	.+58     	; 0x334 <_fpadd_parts+0x20e>
     2fa:	81 e0       	ldi	r24, 0x01	; 1
     2fc:	81 83       	std	Z+1, r24	; 0x01
     2fe:	33 82       	std	Z+3, r3	; 0x03
     300:	22 82       	std	Z+2, r2	; 0x02
     302:	88 27       	eor	r24, r24
     304:	99 27       	eor	r25, r25
     306:	dc 01       	movw	r26, r24
     308:	82 1b       	sub	r24, r18
     30a:	93 0b       	sbc	r25, r19
     30c:	a4 0b       	sbc	r26, r20
     30e:	b5 0b       	sbc	r27, r21
     310:	84 83       	std	Z+4, r24	; 0x04
     312:	95 83       	std	Z+5, r25	; 0x05
     314:	a6 83       	std	Z+6, r26	; 0x06
     316:	b7 83       	std	Z+7, r27	; 0x07
     318:	0d c0       	rjmp	.+26     	; 0x334 <_fpadd_parts+0x20e>
     31a:	22 0f       	add	r18, r18
     31c:	33 1f       	adc	r19, r19
     31e:	44 1f       	adc	r20, r20
     320:	55 1f       	adc	r21, r21
     322:	24 83       	std	Z+4, r18	; 0x04
     324:	35 83       	std	Z+5, r19	; 0x05
     326:	46 83       	std	Z+6, r20	; 0x06
     328:	57 83       	std	Z+7, r21	; 0x07
     32a:	82 81       	ldd	r24, Z+2	; 0x02
     32c:	93 81       	ldd	r25, Z+3	; 0x03
     32e:	01 97       	sbiw	r24, 0x01	; 1
     330:	93 83       	std	Z+3, r25	; 0x03
     332:	82 83       	std	Z+2, r24	; 0x02
     334:	24 81       	ldd	r18, Z+4	; 0x04
     336:	35 81       	ldd	r19, Z+5	; 0x05
     338:	46 81       	ldd	r20, Z+6	; 0x06
     33a:	57 81       	ldd	r21, Z+7	; 0x07
     33c:	da 01       	movw	r26, r20
     33e:	c9 01       	movw	r24, r18
     340:	01 97       	sbiw	r24, 0x01	; 1
     342:	a1 09       	sbc	r26, r1
     344:	b1 09       	sbc	r27, r1
     346:	8f 5f       	subi	r24, 0xFF	; 255
     348:	9f 4f       	sbci	r25, 0xFF	; 255
     34a:	af 4f       	sbci	r26, 0xFF	; 255
     34c:	bf 43       	sbci	r27, 0x3F	; 63
     34e:	28 f3       	brcs	.-54     	; 0x31a <_fpadd_parts+0x1f4>
     350:	0b c0       	rjmp	.+22     	; 0x368 <_fpadd_parts+0x242>
     352:	91 83       	std	Z+1, r25	; 0x01
     354:	33 82       	std	Z+3, r3	; 0x03
     356:	22 82       	std	Z+2, r2	; 0x02
     358:	ea 0c       	add	r14, r10
     35a:	fb 1c       	adc	r15, r11
     35c:	0c 1d       	adc	r16, r12
     35e:	1d 1d       	adc	r17, r13
     360:	e4 82       	std	Z+4, r14	; 0x04
     362:	f5 82       	std	Z+5, r15	; 0x05
     364:	06 83       	std	Z+6, r16	; 0x06
     366:	17 83       	std	Z+7, r17	; 0x07
     368:	83 e0       	ldi	r24, 0x03	; 3
     36a:	80 83       	st	Z, r24
     36c:	24 81       	ldd	r18, Z+4	; 0x04
     36e:	35 81       	ldd	r19, Z+5	; 0x05
     370:	46 81       	ldd	r20, Z+6	; 0x06
     372:	57 81       	ldd	r21, Z+7	; 0x07
     374:	57 ff       	sbrs	r21, 7
     376:	1a c0       	rjmp	.+52     	; 0x3ac <_fpadd_parts+0x286>
     378:	c9 01       	movw	r24, r18
     37a:	aa 27       	eor	r26, r26
     37c:	97 fd       	sbrc	r25, 7
     37e:	a0 95       	com	r26
     380:	ba 2f       	mov	r27, r26
     382:	81 70       	andi	r24, 0x01	; 1
     384:	90 70       	andi	r25, 0x00	; 0
     386:	a0 70       	andi	r26, 0x00	; 0
     388:	b0 70       	andi	r27, 0x00	; 0
     38a:	56 95       	lsr	r21
     38c:	47 95       	ror	r20
     38e:	37 95       	ror	r19
     390:	27 95       	ror	r18
     392:	82 2b       	or	r24, r18
     394:	93 2b       	or	r25, r19
     396:	a4 2b       	or	r26, r20
     398:	b5 2b       	or	r27, r21
     39a:	84 83       	std	Z+4, r24	; 0x04
     39c:	95 83       	std	Z+5, r25	; 0x05
     39e:	a6 83       	std	Z+6, r26	; 0x06
     3a0:	b7 83       	std	Z+7, r27	; 0x07
     3a2:	82 81       	ldd	r24, Z+2	; 0x02
     3a4:	93 81       	ldd	r25, Z+3	; 0x03
     3a6:	01 96       	adiw	r24, 0x01	; 1
     3a8:	93 83       	std	Z+3, r25	; 0x03
     3aa:	82 83       	std	Z+2, r24	; 0x02
     3ac:	df 01       	movw	r26, r30
     3ae:	01 c0       	rjmp	.+2      	; 0x3b2 <_fpadd_parts+0x28c>
     3b0:	d2 01       	movw	r26, r4
     3b2:	cd 01       	movw	r24, r26
     3b4:	cd b7       	in	r28, 0x3d	; 61
     3b6:	de b7       	in	r29, 0x3e	; 62
     3b8:	e2 e1       	ldi	r30, 0x12	; 18
     3ba:	0c 94 84 16 	jmp	0x2d08	; 0x2d08 <__epilogue_restores__>

000003be <__subsf3>:
     3be:	a0 e2       	ldi	r26, 0x20	; 32
     3c0:	b0 e0       	ldi	r27, 0x00	; 0
     3c2:	e5 ee       	ldi	r30, 0xE5	; 229
     3c4:	f1 e0       	ldi	r31, 0x01	; 1
     3c6:	0c 94 74 16 	jmp	0x2ce8	; 0x2ce8 <__prologue_saves__+0x18>
     3ca:	69 83       	std	Y+1, r22	; 0x01
     3cc:	7a 83       	std	Y+2, r23	; 0x02
     3ce:	8b 83       	std	Y+3, r24	; 0x03
     3d0:	9c 83       	std	Y+4, r25	; 0x04
     3d2:	2d 83       	std	Y+5, r18	; 0x05
     3d4:	3e 83       	std	Y+6, r19	; 0x06
     3d6:	4f 83       	std	Y+7, r20	; 0x07
     3d8:	58 87       	std	Y+8, r21	; 0x08
     3da:	e9 e0       	ldi	r30, 0x09	; 9
     3dc:	ee 2e       	mov	r14, r30
     3de:	f1 2c       	mov	r15, r1
     3e0:	ec 0e       	add	r14, r28
     3e2:	fd 1e       	adc	r15, r29
     3e4:	ce 01       	movw	r24, r28
     3e6:	01 96       	adiw	r24, 0x01	; 1
     3e8:	b7 01       	movw	r22, r14
     3ea:	0e 94 64 06 	call	0xcc8	; 0xcc8 <__unpack_f>
     3ee:	8e 01       	movw	r16, r28
     3f0:	0f 5e       	subi	r16, 0xEF	; 239
     3f2:	1f 4f       	sbci	r17, 0xFF	; 255
     3f4:	ce 01       	movw	r24, r28
     3f6:	05 96       	adiw	r24, 0x05	; 5
     3f8:	b8 01       	movw	r22, r16
     3fa:	0e 94 64 06 	call	0xcc8	; 0xcc8 <__unpack_f>
     3fe:	8a 89       	ldd	r24, Y+18	; 0x12
     400:	91 e0       	ldi	r25, 0x01	; 1
     402:	89 27       	eor	r24, r25
     404:	8a 8b       	std	Y+18, r24	; 0x12
     406:	c7 01       	movw	r24, r14
     408:	b8 01       	movw	r22, r16
     40a:	ae 01       	movw	r20, r28
     40c:	47 5e       	subi	r20, 0xE7	; 231
     40e:	5f 4f       	sbci	r21, 0xFF	; 255
     410:	0e 94 93 00 	call	0x126	; 0x126 <_fpadd_parts>
     414:	0e 94 8f 05 	call	0xb1e	; 0xb1e <__pack_f>
     418:	a0 96       	adiw	r28, 0x20	; 32
     41a:	e6 e0       	ldi	r30, 0x06	; 6
     41c:	0c 94 90 16 	jmp	0x2d20	; 0x2d20 <__epilogue_restores__+0x18>

00000420 <__addsf3>:
     420:	a0 e2       	ldi	r26, 0x20	; 32
     422:	b0 e0       	ldi	r27, 0x00	; 0
     424:	e6 e1       	ldi	r30, 0x16	; 22
     426:	f2 e0       	ldi	r31, 0x02	; 2
     428:	0c 94 74 16 	jmp	0x2ce8	; 0x2ce8 <__prologue_saves__+0x18>
     42c:	69 83       	std	Y+1, r22	; 0x01
     42e:	7a 83       	std	Y+2, r23	; 0x02
     430:	8b 83       	std	Y+3, r24	; 0x03
     432:	9c 83       	std	Y+4, r25	; 0x04
     434:	2d 83       	std	Y+5, r18	; 0x05
     436:	3e 83       	std	Y+6, r19	; 0x06
     438:	4f 83       	std	Y+7, r20	; 0x07
     43a:	58 87       	std	Y+8, r21	; 0x08
     43c:	f9 e0       	ldi	r31, 0x09	; 9
     43e:	ef 2e       	mov	r14, r31
     440:	f1 2c       	mov	r15, r1
     442:	ec 0e       	add	r14, r28
     444:	fd 1e       	adc	r15, r29
     446:	ce 01       	movw	r24, r28
     448:	01 96       	adiw	r24, 0x01	; 1
     44a:	b7 01       	movw	r22, r14
     44c:	0e 94 64 06 	call	0xcc8	; 0xcc8 <__unpack_f>
     450:	8e 01       	movw	r16, r28
     452:	0f 5e       	subi	r16, 0xEF	; 239
     454:	1f 4f       	sbci	r17, 0xFF	; 255
     456:	ce 01       	movw	r24, r28
     458:	05 96       	adiw	r24, 0x05	; 5
     45a:	b8 01       	movw	r22, r16
     45c:	0e 94 64 06 	call	0xcc8	; 0xcc8 <__unpack_f>
     460:	c7 01       	movw	r24, r14
     462:	b8 01       	movw	r22, r16
     464:	ae 01       	movw	r20, r28
     466:	47 5e       	subi	r20, 0xE7	; 231
     468:	5f 4f       	sbci	r21, 0xFF	; 255
     46a:	0e 94 93 00 	call	0x126	; 0x126 <_fpadd_parts>
     46e:	0e 94 8f 05 	call	0xb1e	; 0xb1e <__pack_f>
     472:	a0 96       	adiw	r28, 0x20	; 32
     474:	e6 e0       	ldi	r30, 0x06	; 6
     476:	0c 94 90 16 	jmp	0x2d20	; 0x2d20 <__epilogue_restores__+0x18>

0000047a <__mulsf3>:
     47a:	a0 e2       	ldi	r26, 0x20	; 32
     47c:	b0 e0       	ldi	r27, 0x00	; 0
     47e:	e3 e4       	ldi	r30, 0x43	; 67
     480:	f2 e0       	ldi	r31, 0x02	; 2
     482:	0c 94 68 16 	jmp	0x2cd0	; 0x2cd0 <__prologue_saves__>
     486:	69 83       	std	Y+1, r22	; 0x01
     488:	7a 83       	std	Y+2, r23	; 0x02
     48a:	8b 83       	std	Y+3, r24	; 0x03
     48c:	9c 83       	std	Y+4, r25	; 0x04
     48e:	2d 83       	std	Y+5, r18	; 0x05
     490:	3e 83       	std	Y+6, r19	; 0x06
     492:	4f 83       	std	Y+7, r20	; 0x07
     494:	58 87       	std	Y+8, r21	; 0x08
     496:	ce 01       	movw	r24, r28
     498:	01 96       	adiw	r24, 0x01	; 1
     49a:	be 01       	movw	r22, r28
     49c:	67 5f       	subi	r22, 0xF7	; 247
     49e:	7f 4f       	sbci	r23, 0xFF	; 255
     4a0:	0e 94 64 06 	call	0xcc8	; 0xcc8 <__unpack_f>
     4a4:	ce 01       	movw	r24, r28
     4a6:	05 96       	adiw	r24, 0x05	; 5
     4a8:	be 01       	movw	r22, r28
     4aa:	6f 5e       	subi	r22, 0xEF	; 239
     4ac:	7f 4f       	sbci	r23, 0xFF	; 255
     4ae:	0e 94 64 06 	call	0xcc8	; 0xcc8 <__unpack_f>
     4b2:	99 85       	ldd	r25, Y+9	; 0x09
     4b4:	92 30       	cpi	r25, 0x02	; 2
     4b6:	88 f0       	brcs	.+34     	; 0x4da <__mulsf3+0x60>
     4b8:	89 89       	ldd	r24, Y+17	; 0x11
     4ba:	82 30       	cpi	r24, 0x02	; 2
     4bc:	c8 f0       	brcs	.+50     	; 0x4f0 <__mulsf3+0x76>
     4be:	94 30       	cpi	r25, 0x04	; 4
     4c0:	19 f4       	brne	.+6      	; 0x4c8 <__mulsf3+0x4e>
     4c2:	82 30       	cpi	r24, 0x02	; 2
     4c4:	51 f4       	brne	.+20     	; 0x4da <__mulsf3+0x60>
     4c6:	04 c0       	rjmp	.+8      	; 0x4d0 <__mulsf3+0x56>
     4c8:	84 30       	cpi	r24, 0x04	; 4
     4ca:	29 f4       	brne	.+10     	; 0x4d6 <__mulsf3+0x5c>
     4cc:	92 30       	cpi	r25, 0x02	; 2
     4ce:	81 f4       	brne	.+32     	; 0x4f0 <__mulsf3+0x76>
     4d0:	80 e0       	ldi	r24, 0x00	; 0
     4d2:	91 e0       	ldi	r25, 0x01	; 1
     4d4:	c6 c0       	rjmp	.+396    	; 0x662 <__mulsf3+0x1e8>
     4d6:	92 30       	cpi	r25, 0x02	; 2
     4d8:	49 f4       	brne	.+18     	; 0x4ec <__mulsf3+0x72>
     4da:	20 e0       	ldi	r18, 0x00	; 0
     4dc:	9a 85       	ldd	r25, Y+10	; 0x0a
     4de:	8a 89       	ldd	r24, Y+18	; 0x12
     4e0:	98 13       	cpse	r25, r24
     4e2:	21 e0       	ldi	r18, 0x01	; 1
     4e4:	2a 87       	std	Y+10, r18	; 0x0a
     4e6:	ce 01       	movw	r24, r28
     4e8:	09 96       	adiw	r24, 0x09	; 9
     4ea:	bb c0       	rjmp	.+374    	; 0x662 <__mulsf3+0x1e8>
     4ec:	82 30       	cpi	r24, 0x02	; 2
     4ee:	49 f4       	brne	.+18     	; 0x502 <__mulsf3+0x88>
     4f0:	20 e0       	ldi	r18, 0x00	; 0
     4f2:	9a 85       	ldd	r25, Y+10	; 0x0a
     4f4:	8a 89       	ldd	r24, Y+18	; 0x12
     4f6:	98 13       	cpse	r25, r24
     4f8:	21 e0       	ldi	r18, 0x01	; 1
     4fa:	2a 8b       	std	Y+18, r18	; 0x12
     4fc:	ce 01       	movw	r24, r28
     4fe:	41 96       	adiw	r24, 0x11	; 17
     500:	b0 c0       	rjmp	.+352    	; 0x662 <__mulsf3+0x1e8>
     502:	2d 84       	ldd	r2, Y+13	; 0x0d
     504:	3e 84       	ldd	r3, Y+14	; 0x0e
     506:	4f 84       	ldd	r4, Y+15	; 0x0f
     508:	58 88       	ldd	r5, Y+16	; 0x10
     50a:	6d 88       	ldd	r6, Y+21	; 0x15
     50c:	7e 88       	ldd	r7, Y+22	; 0x16
     50e:	8f 88       	ldd	r8, Y+23	; 0x17
     510:	98 8c       	ldd	r9, Y+24	; 0x18
     512:	ee 24       	eor	r14, r14
     514:	ff 24       	eor	r15, r15
     516:	87 01       	movw	r16, r14
     518:	aa 24       	eor	r10, r10
     51a:	bb 24       	eor	r11, r11
     51c:	65 01       	movw	r12, r10
     51e:	40 e0       	ldi	r20, 0x00	; 0
     520:	50 e0       	ldi	r21, 0x00	; 0
     522:	60 e0       	ldi	r22, 0x00	; 0
     524:	70 e0       	ldi	r23, 0x00	; 0
     526:	e0 e0       	ldi	r30, 0x00	; 0
     528:	f0 e0       	ldi	r31, 0x00	; 0
     52a:	c1 01       	movw	r24, r2
     52c:	81 70       	andi	r24, 0x01	; 1
     52e:	90 70       	andi	r25, 0x00	; 0
     530:	89 2b       	or	r24, r25
     532:	e9 f0       	breq	.+58     	; 0x56e <__mulsf3+0xf4>
     534:	e6 0c       	add	r14, r6
     536:	f7 1c       	adc	r15, r7
     538:	08 1d       	adc	r16, r8
     53a:	19 1d       	adc	r17, r9
     53c:	9a 01       	movw	r18, r20
     53e:	ab 01       	movw	r20, r22
     540:	2a 0d       	add	r18, r10
     542:	3b 1d       	adc	r19, r11
     544:	4c 1d       	adc	r20, r12
     546:	5d 1d       	adc	r21, r13
     548:	80 e0       	ldi	r24, 0x00	; 0
     54a:	90 e0       	ldi	r25, 0x00	; 0
     54c:	a0 e0       	ldi	r26, 0x00	; 0
     54e:	b0 e0       	ldi	r27, 0x00	; 0
     550:	e6 14       	cp	r14, r6
     552:	f7 04       	cpc	r15, r7
     554:	08 05       	cpc	r16, r8
     556:	19 05       	cpc	r17, r9
     558:	20 f4       	brcc	.+8      	; 0x562 <__mulsf3+0xe8>
     55a:	81 e0       	ldi	r24, 0x01	; 1
     55c:	90 e0       	ldi	r25, 0x00	; 0
     55e:	a0 e0       	ldi	r26, 0x00	; 0
     560:	b0 e0       	ldi	r27, 0x00	; 0
     562:	ba 01       	movw	r22, r20
     564:	a9 01       	movw	r20, r18
     566:	48 0f       	add	r20, r24
     568:	59 1f       	adc	r21, r25
     56a:	6a 1f       	adc	r22, r26
     56c:	7b 1f       	adc	r23, r27
     56e:	aa 0c       	add	r10, r10
     570:	bb 1c       	adc	r11, r11
     572:	cc 1c       	adc	r12, r12
     574:	dd 1c       	adc	r13, r13
     576:	97 fe       	sbrs	r9, 7
     578:	08 c0       	rjmp	.+16     	; 0x58a <__mulsf3+0x110>
     57a:	81 e0       	ldi	r24, 0x01	; 1
     57c:	90 e0       	ldi	r25, 0x00	; 0
     57e:	a0 e0       	ldi	r26, 0x00	; 0
     580:	b0 e0       	ldi	r27, 0x00	; 0
     582:	a8 2a       	or	r10, r24
     584:	b9 2a       	or	r11, r25
     586:	ca 2a       	or	r12, r26
     588:	db 2a       	or	r13, r27
     58a:	31 96       	adiw	r30, 0x01	; 1
     58c:	e0 32       	cpi	r30, 0x20	; 32
     58e:	f1 05       	cpc	r31, r1
     590:	49 f0       	breq	.+18     	; 0x5a4 <__mulsf3+0x12a>
     592:	66 0c       	add	r6, r6
     594:	77 1c       	adc	r7, r7
     596:	88 1c       	adc	r8, r8
     598:	99 1c       	adc	r9, r9
     59a:	56 94       	lsr	r5
     59c:	47 94       	ror	r4
     59e:	37 94       	ror	r3
     5a0:	27 94       	ror	r2
     5a2:	c3 cf       	rjmp	.-122    	; 0x52a <__mulsf3+0xb0>
     5a4:	fa 85       	ldd	r31, Y+10	; 0x0a
     5a6:	ea 89       	ldd	r30, Y+18	; 0x12
     5a8:	2b 89       	ldd	r18, Y+19	; 0x13
     5aa:	3c 89       	ldd	r19, Y+20	; 0x14
     5ac:	8b 85       	ldd	r24, Y+11	; 0x0b
     5ae:	9c 85       	ldd	r25, Y+12	; 0x0c
     5b0:	28 0f       	add	r18, r24
     5b2:	39 1f       	adc	r19, r25
     5b4:	2e 5f       	subi	r18, 0xFE	; 254
     5b6:	3f 4f       	sbci	r19, 0xFF	; 255
     5b8:	17 c0       	rjmp	.+46     	; 0x5e8 <__mulsf3+0x16e>
     5ba:	ca 01       	movw	r24, r20
     5bc:	81 70       	andi	r24, 0x01	; 1
     5be:	90 70       	andi	r25, 0x00	; 0
     5c0:	89 2b       	or	r24, r25
     5c2:	61 f0       	breq	.+24     	; 0x5dc <__mulsf3+0x162>
     5c4:	16 95       	lsr	r17
     5c6:	07 95       	ror	r16
     5c8:	f7 94       	ror	r15
     5ca:	e7 94       	ror	r14
     5cc:	80 e0       	ldi	r24, 0x00	; 0
     5ce:	90 e0       	ldi	r25, 0x00	; 0
     5d0:	a0 e0       	ldi	r26, 0x00	; 0
     5d2:	b0 e8       	ldi	r27, 0x80	; 128
     5d4:	e8 2a       	or	r14, r24
     5d6:	f9 2a       	or	r15, r25
     5d8:	0a 2b       	or	r16, r26
     5da:	1b 2b       	or	r17, r27
     5dc:	76 95       	lsr	r23
     5de:	67 95       	ror	r22
     5e0:	57 95       	ror	r21
     5e2:	47 95       	ror	r20
     5e4:	2f 5f       	subi	r18, 0xFF	; 255
     5e6:	3f 4f       	sbci	r19, 0xFF	; 255
     5e8:	77 fd       	sbrc	r23, 7
     5ea:	e7 cf       	rjmp	.-50     	; 0x5ba <__mulsf3+0x140>
     5ec:	0c c0       	rjmp	.+24     	; 0x606 <__mulsf3+0x18c>
     5ee:	44 0f       	add	r20, r20
     5f0:	55 1f       	adc	r21, r21
     5f2:	66 1f       	adc	r22, r22
     5f4:	77 1f       	adc	r23, r23
     5f6:	17 fd       	sbrc	r17, 7
     5f8:	41 60       	ori	r20, 0x01	; 1
     5fa:	ee 0c       	add	r14, r14
     5fc:	ff 1c       	adc	r15, r15
     5fe:	00 1f       	adc	r16, r16
     600:	11 1f       	adc	r17, r17
     602:	21 50       	subi	r18, 0x01	; 1
     604:	30 40       	sbci	r19, 0x00	; 0
     606:	40 30       	cpi	r20, 0x00	; 0
     608:	90 e0       	ldi	r25, 0x00	; 0
     60a:	59 07       	cpc	r21, r25
     60c:	90 e0       	ldi	r25, 0x00	; 0
     60e:	69 07       	cpc	r22, r25
     610:	90 e4       	ldi	r25, 0x40	; 64
     612:	79 07       	cpc	r23, r25
     614:	60 f3       	brcs	.-40     	; 0x5ee <__mulsf3+0x174>
     616:	2b 8f       	std	Y+27, r18	; 0x1b
     618:	3c 8f       	std	Y+28, r19	; 0x1c
     61a:	db 01       	movw	r26, r22
     61c:	ca 01       	movw	r24, r20
     61e:	8f 77       	andi	r24, 0x7F	; 127
     620:	90 70       	andi	r25, 0x00	; 0
     622:	a0 70       	andi	r26, 0x00	; 0
     624:	b0 70       	andi	r27, 0x00	; 0
     626:	80 34       	cpi	r24, 0x40	; 64
     628:	91 05       	cpc	r25, r1
     62a:	a1 05       	cpc	r26, r1
     62c:	b1 05       	cpc	r27, r1
     62e:	61 f4       	brne	.+24     	; 0x648 <__mulsf3+0x1ce>
     630:	47 fd       	sbrc	r20, 7
     632:	0a c0       	rjmp	.+20     	; 0x648 <__mulsf3+0x1ce>
     634:	e1 14       	cp	r14, r1
     636:	f1 04       	cpc	r15, r1
     638:	01 05       	cpc	r16, r1
     63a:	11 05       	cpc	r17, r1
     63c:	29 f0       	breq	.+10     	; 0x648 <__mulsf3+0x1ce>
     63e:	40 5c       	subi	r20, 0xC0	; 192
     640:	5f 4f       	sbci	r21, 0xFF	; 255
     642:	6f 4f       	sbci	r22, 0xFF	; 255
     644:	7f 4f       	sbci	r23, 0xFF	; 255
     646:	40 78       	andi	r20, 0x80	; 128
     648:	1a 8e       	std	Y+26, r1	; 0x1a
     64a:	fe 17       	cp	r31, r30
     64c:	11 f0       	breq	.+4      	; 0x652 <__mulsf3+0x1d8>
     64e:	81 e0       	ldi	r24, 0x01	; 1
     650:	8a 8f       	std	Y+26, r24	; 0x1a
     652:	4d 8f       	std	Y+29, r20	; 0x1d
     654:	5e 8f       	std	Y+30, r21	; 0x1e
     656:	6f 8f       	std	Y+31, r22	; 0x1f
     658:	78 a3       	std	Y+32, r23	; 0x20
     65a:	83 e0       	ldi	r24, 0x03	; 3
     65c:	89 8f       	std	Y+25, r24	; 0x19
     65e:	ce 01       	movw	r24, r28
     660:	49 96       	adiw	r24, 0x19	; 25
     662:	0e 94 8f 05 	call	0xb1e	; 0xb1e <__pack_f>
     666:	a0 96       	adiw	r28, 0x20	; 32
     668:	e2 e1       	ldi	r30, 0x12	; 18
     66a:	0c 94 84 16 	jmp	0x2d08	; 0x2d08 <__epilogue_restores__>

0000066e <__divsf3>:
     66e:	a8 e1       	ldi	r26, 0x18	; 24
     670:	b0 e0       	ldi	r27, 0x00	; 0
     672:	ed e3       	ldi	r30, 0x3D	; 61
     674:	f3 e0       	ldi	r31, 0x03	; 3
     676:	0c 94 70 16 	jmp	0x2ce0	; 0x2ce0 <__prologue_saves__+0x10>
     67a:	69 83       	std	Y+1, r22	; 0x01
     67c:	7a 83       	std	Y+2, r23	; 0x02
     67e:	8b 83       	std	Y+3, r24	; 0x03
     680:	9c 83       	std	Y+4, r25	; 0x04
     682:	2d 83       	std	Y+5, r18	; 0x05
     684:	3e 83       	std	Y+6, r19	; 0x06
     686:	4f 83       	std	Y+7, r20	; 0x07
     688:	58 87       	std	Y+8, r21	; 0x08
     68a:	b9 e0       	ldi	r27, 0x09	; 9
     68c:	eb 2e       	mov	r14, r27
     68e:	f1 2c       	mov	r15, r1
     690:	ec 0e       	add	r14, r28
     692:	fd 1e       	adc	r15, r29
     694:	ce 01       	movw	r24, r28
     696:	01 96       	adiw	r24, 0x01	; 1
     698:	b7 01       	movw	r22, r14
     69a:	0e 94 64 06 	call	0xcc8	; 0xcc8 <__unpack_f>
     69e:	8e 01       	movw	r16, r28
     6a0:	0f 5e       	subi	r16, 0xEF	; 239
     6a2:	1f 4f       	sbci	r17, 0xFF	; 255
     6a4:	ce 01       	movw	r24, r28
     6a6:	05 96       	adiw	r24, 0x05	; 5
     6a8:	b8 01       	movw	r22, r16
     6aa:	0e 94 64 06 	call	0xcc8	; 0xcc8 <__unpack_f>
     6ae:	29 85       	ldd	r18, Y+9	; 0x09
     6b0:	22 30       	cpi	r18, 0x02	; 2
     6b2:	08 f4       	brcc	.+2      	; 0x6b6 <__divsf3+0x48>
     6b4:	7e c0       	rjmp	.+252    	; 0x7b2 <__divsf3+0x144>
     6b6:	39 89       	ldd	r19, Y+17	; 0x11
     6b8:	32 30       	cpi	r19, 0x02	; 2
     6ba:	10 f4       	brcc	.+4      	; 0x6c0 <__divsf3+0x52>
     6bc:	b8 01       	movw	r22, r16
     6be:	7c c0       	rjmp	.+248    	; 0x7b8 <__divsf3+0x14a>
     6c0:	8a 85       	ldd	r24, Y+10	; 0x0a
     6c2:	9a 89       	ldd	r25, Y+18	; 0x12
     6c4:	89 27       	eor	r24, r25
     6c6:	8a 87       	std	Y+10, r24	; 0x0a
     6c8:	24 30       	cpi	r18, 0x04	; 4
     6ca:	11 f0       	breq	.+4      	; 0x6d0 <__divsf3+0x62>
     6cc:	22 30       	cpi	r18, 0x02	; 2
     6ce:	31 f4       	brne	.+12     	; 0x6dc <__divsf3+0x6e>
     6d0:	23 17       	cp	r18, r19
     6d2:	09 f0       	breq	.+2      	; 0x6d6 <__divsf3+0x68>
     6d4:	6e c0       	rjmp	.+220    	; 0x7b2 <__divsf3+0x144>
     6d6:	60 e0       	ldi	r22, 0x00	; 0
     6d8:	71 e0       	ldi	r23, 0x01	; 1
     6da:	6e c0       	rjmp	.+220    	; 0x7b8 <__divsf3+0x14a>
     6dc:	34 30       	cpi	r19, 0x04	; 4
     6de:	39 f4       	brne	.+14     	; 0x6ee <__divsf3+0x80>
     6e0:	1d 86       	std	Y+13, r1	; 0x0d
     6e2:	1e 86       	std	Y+14, r1	; 0x0e
     6e4:	1f 86       	std	Y+15, r1	; 0x0f
     6e6:	18 8a       	std	Y+16, r1	; 0x10
     6e8:	1c 86       	std	Y+12, r1	; 0x0c
     6ea:	1b 86       	std	Y+11, r1	; 0x0b
     6ec:	04 c0       	rjmp	.+8      	; 0x6f6 <__divsf3+0x88>
     6ee:	32 30       	cpi	r19, 0x02	; 2
     6f0:	21 f4       	brne	.+8      	; 0x6fa <__divsf3+0x8c>
     6f2:	84 e0       	ldi	r24, 0x04	; 4
     6f4:	89 87       	std	Y+9, r24	; 0x09
     6f6:	b7 01       	movw	r22, r14
     6f8:	5f c0       	rjmp	.+190    	; 0x7b8 <__divsf3+0x14a>
     6fa:	2b 85       	ldd	r18, Y+11	; 0x0b
     6fc:	3c 85       	ldd	r19, Y+12	; 0x0c
     6fe:	8b 89       	ldd	r24, Y+19	; 0x13
     700:	9c 89       	ldd	r25, Y+20	; 0x14
     702:	28 1b       	sub	r18, r24
     704:	39 0b       	sbc	r19, r25
     706:	3c 87       	std	Y+12, r19	; 0x0c
     708:	2b 87       	std	Y+11, r18	; 0x0b
     70a:	ed 84       	ldd	r14, Y+13	; 0x0d
     70c:	fe 84       	ldd	r15, Y+14	; 0x0e
     70e:	0f 85       	ldd	r16, Y+15	; 0x0f
     710:	18 89       	ldd	r17, Y+16	; 0x10
     712:	ad 88       	ldd	r10, Y+21	; 0x15
     714:	be 88       	ldd	r11, Y+22	; 0x16
     716:	cf 88       	ldd	r12, Y+23	; 0x17
     718:	d8 8c       	ldd	r13, Y+24	; 0x18
     71a:	ea 14       	cp	r14, r10
     71c:	fb 04       	cpc	r15, r11
     71e:	0c 05       	cpc	r16, r12
     720:	1d 05       	cpc	r17, r13
     722:	40 f4       	brcc	.+16     	; 0x734 <__divsf3+0xc6>
     724:	ee 0c       	add	r14, r14
     726:	ff 1c       	adc	r15, r15
     728:	00 1f       	adc	r16, r16
     72a:	11 1f       	adc	r17, r17
     72c:	21 50       	subi	r18, 0x01	; 1
     72e:	30 40       	sbci	r19, 0x00	; 0
     730:	3c 87       	std	Y+12, r19	; 0x0c
     732:	2b 87       	std	Y+11, r18	; 0x0b
     734:	20 e0       	ldi	r18, 0x00	; 0
     736:	30 e0       	ldi	r19, 0x00	; 0
     738:	40 e0       	ldi	r20, 0x00	; 0
     73a:	50 e0       	ldi	r21, 0x00	; 0
     73c:	80 e0       	ldi	r24, 0x00	; 0
     73e:	90 e0       	ldi	r25, 0x00	; 0
     740:	a0 e0       	ldi	r26, 0x00	; 0
     742:	b0 e4       	ldi	r27, 0x40	; 64
     744:	60 e0       	ldi	r22, 0x00	; 0
     746:	70 e0       	ldi	r23, 0x00	; 0
     748:	ea 14       	cp	r14, r10
     74a:	fb 04       	cpc	r15, r11
     74c:	0c 05       	cpc	r16, r12
     74e:	1d 05       	cpc	r17, r13
     750:	40 f0       	brcs	.+16     	; 0x762 <__divsf3+0xf4>
     752:	28 2b       	or	r18, r24
     754:	39 2b       	or	r19, r25
     756:	4a 2b       	or	r20, r26
     758:	5b 2b       	or	r21, r27
     75a:	ea 18       	sub	r14, r10
     75c:	fb 08       	sbc	r15, r11
     75e:	0c 09       	sbc	r16, r12
     760:	1d 09       	sbc	r17, r13
     762:	b6 95       	lsr	r27
     764:	a7 95       	ror	r26
     766:	97 95       	ror	r25
     768:	87 95       	ror	r24
     76a:	ee 0c       	add	r14, r14
     76c:	ff 1c       	adc	r15, r15
     76e:	00 1f       	adc	r16, r16
     770:	11 1f       	adc	r17, r17
     772:	6f 5f       	subi	r22, 0xFF	; 255
     774:	7f 4f       	sbci	r23, 0xFF	; 255
     776:	6f 31       	cpi	r22, 0x1F	; 31
     778:	71 05       	cpc	r23, r1
     77a:	31 f7       	brne	.-52     	; 0x748 <__divsf3+0xda>
     77c:	da 01       	movw	r26, r20
     77e:	c9 01       	movw	r24, r18
     780:	8f 77       	andi	r24, 0x7F	; 127
     782:	90 70       	andi	r25, 0x00	; 0
     784:	a0 70       	andi	r26, 0x00	; 0
     786:	b0 70       	andi	r27, 0x00	; 0
     788:	80 34       	cpi	r24, 0x40	; 64
     78a:	91 05       	cpc	r25, r1
     78c:	a1 05       	cpc	r26, r1
     78e:	b1 05       	cpc	r27, r1
     790:	61 f4       	brne	.+24     	; 0x7aa <__divsf3+0x13c>
     792:	27 fd       	sbrc	r18, 7
     794:	0a c0       	rjmp	.+20     	; 0x7aa <__divsf3+0x13c>
     796:	e1 14       	cp	r14, r1
     798:	f1 04       	cpc	r15, r1
     79a:	01 05       	cpc	r16, r1
     79c:	11 05       	cpc	r17, r1
     79e:	29 f0       	breq	.+10     	; 0x7aa <__divsf3+0x13c>
     7a0:	20 5c       	subi	r18, 0xC0	; 192
     7a2:	3f 4f       	sbci	r19, 0xFF	; 255
     7a4:	4f 4f       	sbci	r20, 0xFF	; 255
     7a6:	5f 4f       	sbci	r21, 0xFF	; 255
     7a8:	20 78       	andi	r18, 0x80	; 128
     7aa:	2d 87       	std	Y+13, r18	; 0x0d
     7ac:	3e 87       	std	Y+14, r19	; 0x0e
     7ae:	4f 87       	std	Y+15, r20	; 0x0f
     7b0:	58 8b       	std	Y+16, r21	; 0x10
     7b2:	be 01       	movw	r22, r28
     7b4:	67 5f       	subi	r22, 0xF7	; 247
     7b6:	7f 4f       	sbci	r23, 0xFF	; 255
     7b8:	cb 01       	movw	r24, r22
     7ba:	0e 94 8f 05 	call	0xb1e	; 0xb1e <__pack_f>
     7be:	68 96       	adiw	r28, 0x18	; 24
     7c0:	ea e0       	ldi	r30, 0x0A	; 10
     7c2:	0c 94 8c 16 	jmp	0x2d18	; 0x2d18 <__epilogue_restores__+0x10>

000007c6 <__gtsf2>:
     7c6:	a8 e1       	ldi	r26, 0x18	; 24
     7c8:	b0 e0       	ldi	r27, 0x00	; 0
     7ca:	e9 ee       	ldi	r30, 0xE9	; 233
     7cc:	f3 e0       	ldi	r31, 0x03	; 3
     7ce:	0c 94 74 16 	jmp	0x2ce8	; 0x2ce8 <__prologue_saves__+0x18>
     7d2:	69 83       	std	Y+1, r22	; 0x01
     7d4:	7a 83       	std	Y+2, r23	; 0x02
     7d6:	8b 83       	std	Y+3, r24	; 0x03
     7d8:	9c 83       	std	Y+4, r25	; 0x04
     7da:	2d 83       	std	Y+5, r18	; 0x05
     7dc:	3e 83       	std	Y+6, r19	; 0x06
     7de:	4f 83       	std	Y+7, r20	; 0x07
     7e0:	58 87       	std	Y+8, r21	; 0x08
     7e2:	89 e0       	ldi	r24, 0x09	; 9
     7e4:	e8 2e       	mov	r14, r24
     7e6:	f1 2c       	mov	r15, r1
     7e8:	ec 0e       	add	r14, r28
     7ea:	fd 1e       	adc	r15, r29
     7ec:	ce 01       	movw	r24, r28
     7ee:	01 96       	adiw	r24, 0x01	; 1
     7f0:	b7 01       	movw	r22, r14
     7f2:	0e 94 64 06 	call	0xcc8	; 0xcc8 <__unpack_f>
     7f6:	8e 01       	movw	r16, r28
     7f8:	0f 5e       	subi	r16, 0xEF	; 239
     7fa:	1f 4f       	sbci	r17, 0xFF	; 255
     7fc:	ce 01       	movw	r24, r28
     7fe:	05 96       	adiw	r24, 0x05	; 5
     800:	b8 01       	movw	r22, r16
     802:	0e 94 64 06 	call	0xcc8	; 0xcc8 <__unpack_f>
     806:	89 85       	ldd	r24, Y+9	; 0x09
     808:	82 30       	cpi	r24, 0x02	; 2
     80a:	40 f0       	brcs	.+16     	; 0x81c <__gtsf2+0x56>
     80c:	89 89       	ldd	r24, Y+17	; 0x11
     80e:	82 30       	cpi	r24, 0x02	; 2
     810:	28 f0       	brcs	.+10     	; 0x81c <__gtsf2+0x56>
     812:	c7 01       	movw	r24, r14
     814:	b8 01       	movw	r22, r16
     816:	0e 94 dc 06 	call	0xdb8	; 0xdb8 <__fpcmp_parts_f>
     81a:	01 c0       	rjmp	.+2      	; 0x81e <__gtsf2+0x58>
     81c:	8f ef       	ldi	r24, 0xFF	; 255
     81e:	68 96       	adiw	r28, 0x18	; 24
     820:	e6 e0       	ldi	r30, 0x06	; 6
     822:	0c 94 90 16 	jmp	0x2d20	; 0x2d20 <__epilogue_restores__+0x18>

00000826 <__gesf2>:
     826:	a8 e1       	ldi	r26, 0x18	; 24
     828:	b0 e0       	ldi	r27, 0x00	; 0
     82a:	e9 e1       	ldi	r30, 0x19	; 25
     82c:	f4 e0       	ldi	r31, 0x04	; 4
     82e:	0c 94 74 16 	jmp	0x2ce8	; 0x2ce8 <__prologue_saves__+0x18>
     832:	69 83       	std	Y+1, r22	; 0x01
     834:	7a 83       	std	Y+2, r23	; 0x02
     836:	8b 83       	std	Y+3, r24	; 0x03
     838:	9c 83       	std	Y+4, r25	; 0x04
     83a:	2d 83       	std	Y+5, r18	; 0x05
     83c:	3e 83       	std	Y+6, r19	; 0x06
     83e:	4f 83       	std	Y+7, r20	; 0x07
     840:	58 87       	std	Y+8, r21	; 0x08
     842:	89 e0       	ldi	r24, 0x09	; 9
     844:	e8 2e       	mov	r14, r24
     846:	f1 2c       	mov	r15, r1
     848:	ec 0e       	add	r14, r28
     84a:	fd 1e       	adc	r15, r29
     84c:	ce 01       	movw	r24, r28
     84e:	01 96       	adiw	r24, 0x01	; 1
     850:	b7 01       	movw	r22, r14
     852:	0e 94 64 06 	call	0xcc8	; 0xcc8 <__unpack_f>
     856:	8e 01       	movw	r16, r28
     858:	0f 5e       	subi	r16, 0xEF	; 239
     85a:	1f 4f       	sbci	r17, 0xFF	; 255
     85c:	ce 01       	movw	r24, r28
     85e:	05 96       	adiw	r24, 0x05	; 5
     860:	b8 01       	movw	r22, r16
     862:	0e 94 64 06 	call	0xcc8	; 0xcc8 <__unpack_f>
     866:	89 85       	ldd	r24, Y+9	; 0x09
     868:	82 30       	cpi	r24, 0x02	; 2
     86a:	40 f0       	brcs	.+16     	; 0x87c <__gesf2+0x56>
     86c:	89 89       	ldd	r24, Y+17	; 0x11
     86e:	82 30       	cpi	r24, 0x02	; 2
     870:	28 f0       	brcs	.+10     	; 0x87c <__gesf2+0x56>
     872:	c7 01       	movw	r24, r14
     874:	b8 01       	movw	r22, r16
     876:	0e 94 dc 06 	call	0xdb8	; 0xdb8 <__fpcmp_parts_f>
     87a:	01 c0       	rjmp	.+2      	; 0x87e <__gesf2+0x58>
     87c:	8f ef       	ldi	r24, 0xFF	; 255
     87e:	68 96       	adiw	r28, 0x18	; 24
     880:	e6 e0       	ldi	r30, 0x06	; 6
     882:	0c 94 90 16 	jmp	0x2d20	; 0x2d20 <__epilogue_restores__+0x18>

00000886 <__ltsf2>:
     886:	a8 e1       	ldi	r26, 0x18	; 24
     888:	b0 e0       	ldi	r27, 0x00	; 0
     88a:	e9 e4       	ldi	r30, 0x49	; 73
     88c:	f4 e0       	ldi	r31, 0x04	; 4
     88e:	0c 94 74 16 	jmp	0x2ce8	; 0x2ce8 <__prologue_saves__+0x18>
     892:	69 83       	std	Y+1, r22	; 0x01
     894:	7a 83       	std	Y+2, r23	; 0x02
     896:	8b 83       	std	Y+3, r24	; 0x03
     898:	9c 83       	std	Y+4, r25	; 0x04
     89a:	2d 83       	std	Y+5, r18	; 0x05
     89c:	3e 83       	std	Y+6, r19	; 0x06
     89e:	4f 83       	std	Y+7, r20	; 0x07
     8a0:	58 87       	std	Y+8, r21	; 0x08
     8a2:	89 e0       	ldi	r24, 0x09	; 9
     8a4:	e8 2e       	mov	r14, r24
     8a6:	f1 2c       	mov	r15, r1
     8a8:	ec 0e       	add	r14, r28
     8aa:	fd 1e       	adc	r15, r29
     8ac:	ce 01       	movw	r24, r28
     8ae:	01 96       	adiw	r24, 0x01	; 1
     8b0:	b7 01       	movw	r22, r14
     8b2:	0e 94 64 06 	call	0xcc8	; 0xcc8 <__unpack_f>
     8b6:	8e 01       	movw	r16, r28
     8b8:	0f 5e       	subi	r16, 0xEF	; 239
     8ba:	1f 4f       	sbci	r17, 0xFF	; 255
     8bc:	ce 01       	movw	r24, r28
     8be:	05 96       	adiw	r24, 0x05	; 5
     8c0:	b8 01       	movw	r22, r16
     8c2:	0e 94 64 06 	call	0xcc8	; 0xcc8 <__unpack_f>
     8c6:	89 85       	ldd	r24, Y+9	; 0x09
     8c8:	82 30       	cpi	r24, 0x02	; 2
     8ca:	40 f0       	brcs	.+16     	; 0x8dc <__ltsf2+0x56>
     8cc:	89 89       	ldd	r24, Y+17	; 0x11
     8ce:	82 30       	cpi	r24, 0x02	; 2
     8d0:	28 f0       	brcs	.+10     	; 0x8dc <__ltsf2+0x56>
     8d2:	c7 01       	movw	r24, r14
     8d4:	b8 01       	movw	r22, r16
     8d6:	0e 94 dc 06 	call	0xdb8	; 0xdb8 <__fpcmp_parts_f>
     8da:	01 c0       	rjmp	.+2      	; 0x8de <__ltsf2+0x58>
     8dc:	81 e0       	ldi	r24, 0x01	; 1
     8de:	68 96       	adiw	r28, 0x18	; 24
     8e0:	e6 e0       	ldi	r30, 0x06	; 6
     8e2:	0c 94 90 16 	jmp	0x2d20	; 0x2d20 <__epilogue_restores__+0x18>

000008e6 <__fixsfsi>:
     8e6:	ac e0       	ldi	r26, 0x0C	; 12
     8e8:	b0 e0       	ldi	r27, 0x00	; 0
     8ea:	e9 e7       	ldi	r30, 0x79	; 121
     8ec:	f4 e0       	ldi	r31, 0x04	; 4
     8ee:	0c 94 78 16 	jmp	0x2cf0	; 0x2cf0 <__prologue_saves__+0x20>
     8f2:	69 83       	std	Y+1, r22	; 0x01
     8f4:	7a 83       	std	Y+2, r23	; 0x02
     8f6:	8b 83       	std	Y+3, r24	; 0x03
     8f8:	9c 83       	std	Y+4, r25	; 0x04
     8fa:	ce 01       	movw	r24, r28
     8fc:	01 96       	adiw	r24, 0x01	; 1
     8fe:	be 01       	movw	r22, r28
     900:	6b 5f       	subi	r22, 0xFB	; 251
     902:	7f 4f       	sbci	r23, 0xFF	; 255
     904:	0e 94 64 06 	call	0xcc8	; 0xcc8 <__unpack_f>
     908:	8d 81       	ldd	r24, Y+5	; 0x05
     90a:	82 30       	cpi	r24, 0x02	; 2
     90c:	61 f1       	breq	.+88     	; 0x966 <__fixsfsi+0x80>
     90e:	82 30       	cpi	r24, 0x02	; 2
     910:	50 f1       	brcs	.+84     	; 0x966 <__fixsfsi+0x80>
     912:	84 30       	cpi	r24, 0x04	; 4
     914:	21 f4       	brne	.+8      	; 0x91e <__fixsfsi+0x38>
     916:	8e 81       	ldd	r24, Y+6	; 0x06
     918:	88 23       	and	r24, r24
     91a:	51 f1       	breq	.+84     	; 0x970 <__fixsfsi+0x8a>
     91c:	2e c0       	rjmp	.+92     	; 0x97a <__fixsfsi+0x94>
     91e:	2f 81       	ldd	r18, Y+7	; 0x07
     920:	38 85       	ldd	r19, Y+8	; 0x08
     922:	37 fd       	sbrc	r19, 7
     924:	20 c0       	rjmp	.+64     	; 0x966 <__fixsfsi+0x80>
     926:	6e 81       	ldd	r22, Y+6	; 0x06
     928:	2f 31       	cpi	r18, 0x1F	; 31
     92a:	31 05       	cpc	r19, r1
     92c:	1c f0       	brlt	.+6      	; 0x934 <__fixsfsi+0x4e>
     92e:	66 23       	and	r22, r22
     930:	f9 f0       	breq	.+62     	; 0x970 <__fixsfsi+0x8a>
     932:	23 c0       	rjmp	.+70     	; 0x97a <__fixsfsi+0x94>
     934:	8e e1       	ldi	r24, 0x1E	; 30
     936:	90 e0       	ldi	r25, 0x00	; 0
     938:	82 1b       	sub	r24, r18
     93a:	93 0b       	sbc	r25, r19
     93c:	29 85       	ldd	r18, Y+9	; 0x09
     93e:	3a 85       	ldd	r19, Y+10	; 0x0a
     940:	4b 85       	ldd	r20, Y+11	; 0x0b
     942:	5c 85       	ldd	r21, Y+12	; 0x0c
     944:	04 c0       	rjmp	.+8      	; 0x94e <__fixsfsi+0x68>
     946:	56 95       	lsr	r21
     948:	47 95       	ror	r20
     94a:	37 95       	ror	r19
     94c:	27 95       	ror	r18
     94e:	8a 95       	dec	r24
     950:	d2 f7       	brpl	.-12     	; 0x946 <__fixsfsi+0x60>
     952:	66 23       	and	r22, r22
     954:	b1 f0       	breq	.+44     	; 0x982 <__fixsfsi+0x9c>
     956:	50 95       	com	r21
     958:	40 95       	com	r20
     95a:	30 95       	com	r19
     95c:	21 95       	neg	r18
     95e:	3f 4f       	sbci	r19, 0xFF	; 255
     960:	4f 4f       	sbci	r20, 0xFF	; 255
     962:	5f 4f       	sbci	r21, 0xFF	; 255
     964:	0e c0       	rjmp	.+28     	; 0x982 <__fixsfsi+0x9c>
     966:	20 e0       	ldi	r18, 0x00	; 0
     968:	30 e0       	ldi	r19, 0x00	; 0
     96a:	40 e0       	ldi	r20, 0x00	; 0
     96c:	50 e0       	ldi	r21, 0x00	; 0
     96e:	09 c0       	rjmp	.+18     	; 0x982 <__fixsfsi+0x9c>
     970:	2f ef       	ldi	r18, 0xFF	; 255
     972:	3f ef       	ldi	r19, 0xFF	; 255
     974:	4f ef       	ldi	r20, 0xFF	; 255
     976:	5f e7       	ldi	r21, 0x7F	; 127
     978:	04 c0       	rjmp	.+8      	; 0x982 <__fixsfsi+0x9c>
     97a:	20 e0       	ldi	r18, 0x00	; 0
     97c:	30 e0       	ldi	r19, 0x00	; 0
     97e:	40 e0       	ldi	r20, 0x00	; 0
     980:	50 e8       	ldi	r21, 0x80	; 128
     982:	b9 01       	movw	r22, r18
     984:	ca 01       	movw	r24, r20
     986:	2c 96       	adiw	r28, 0x0c	; 12
     988:	e2 e0       	ldi	r30, 0x02	; 2
     98a:	0c 94 94 16 	jmp	0x2d28	; 0x2d28 <__epilogue_restores__+0x20>

0000098e <__floatunsisf>:
     98e:	a8 e0       	ldi	r26, 0x08	; 8
     990:	b0 e0       	ldi	r27, 0x00	; 0
     992:	ed ec       	ldi	r30, 0xCD	; 205
     994:	f4 e0       	ldi	r31, 0x04	; 4
     996:	0c 94 70 16 	jmp	0x2ce0	; 0x2ce0 <__prologue_saves__+0x10>
     99a:	7b 01       	movw	r14, r22
     99c:	8c 01       	movw	r16, r24
     99e:	61 15       	cp	r22, r1
     9a0:	71 05       	cpc	r23, r1
     9a2:	81 05       	cpc	r24, r1
     9a4:	91 05       	cpc	r25, r1
     9a6:	19 f4       	brne	.+6      	; 0x9ae <__floatunsisf+0x20>
     9a8:	82 e0       	ldi	r24, 0x02	; 2
     9aa:	89 83       	std	Y+1, r24	; 0x01
     9ac:	60 c0       	rjmp	.+192    	; 0xa6e <__floatunsisf+0xe0>
     9ae:	83 e0       	ldi	r24, 0x03	; 3
     9b0:	89 83       	std	Y+1, r24	; 0x01
     9b2:	8e e1       	ldi	r24, 0x1E	; 30
     9b4:	c8 2e       	mov	r12, r24
     9b6:	d1 2c       	mov	r13, r1
     9b8:	dc 82       	std	Y+4, r13	; 0x04
     9ba:	cb 82       	std	Y+3, r12	; 0x03
     9bc:	ed 82       	std	Y+5, r14	; 0x05
     9be:	fe 82       	std	Y+6, r15	; 0x06
     9c0:	0f 83       	std	Y+7, r16	; 0x07
     9c2:	18 87       	std	Y+8, r17	; 0x08
     9c4:	c8 01       	movw	r24, r16
     9c6:	b7 01       	movw	r22, r14
     9c8:	0e 94 40 05 	call	0xa80	; 0xa80 <__clzsi2>
     9cc:	fc 01       	movw	r30, r24
     9ce:	31 97       	sbiw	r30, 0x01	; 1
     9d0:	f7 ff       	sbrs	r31, 7
     9d2:	3b c0       	rjmp	.+118    	; 0xa4a <__floatunsisf+0xbc>
     9d4:	22 27       	eor	r18, r18
     9d6:	33 27       	eor	r19, r19
     9d8:	2e 1b       	sub	r18, r30
     9da:	3f 0b       	sbc	r19, r31
     9dc:	57 01       	movw	r10, r14
     9de:	68 01       	movw	r12, r16
     9e0:	02 2e       	mov	r0, r18
     9e2:	04 c0       	rjmp	.+8      	; 0x9ec <__floatunsisf+0x5e>
     9e4:	d6 94       	lsr	r13
     9e6:	c7 94       	ror	r12
     9e8:	b7 94       	ror	r11
     9ea:	a7 94       	ror	r10
     9ec:	0a 94       	dec	r0
     9ee:	d2 f7       	brpl	.-12     	; 0x9e4 <__floatunsisf+0x56>
     9f0:	40 e0       	ldi	r20, 0x00	; 0
     9f2:	50 e0       	ldi	r21, 0x00	; 0
     9f4:	60 e0       	ldi	r22, 0x00	; 0
     9f6:	70 e0       	ldi	r23, 0x00	; 0
     9f8:	81 e0       	ldi	r24, 0x01	; 1
     9fa:	90 e0       	ldi	r25, 0x00	; 0
     9fc:	a0 e0       	ldi	r26, 0x00	; 0
     9fe:	b0 e0       	ldi	r27, 0x00	; 0
     a00:	04 c0       	rjmp	.+8      	; 0xa0a <__floatunsisf+0x7c>
     a02:	88 0f       	add	r24, r24
     a04:	99 1f       	adc	r25, r25
     a06:	aa 1f       	adc	r26, r26
     a08:	bb 1f       	adc	r27, r27
     a0a:	2a 95       	dec	r18
     a0c:	d2 f7       	brpl	.-12     	; 0xa02 <__floatunsisf+0x74>
     a0e:	01 97       	sbiw	r24, 0x01	; 1
     a10:	a1 09       	sbc	r26, r1
     a12:	b1 09       	sbc	r27, r1
     a14:	8e 21       	and	r24, r14
     a16:	9f 21       	and	r25, r15
     a18:	a0 23       	and	r26, r16
     a1a:	b1 23       	and	r27, r17
     a1c:	00 97       	sbiw	r24, 0x00	; 0
     a1e:	a1 05       	cpc	r26, r1
     a20:	b1 05       	cpc	r27, r1
     a22:	21 f0       	breq	.+8      	; 0xa2c <__floatunsisf+0x9e>
     a24:	41 e0       	ldi	r20, 0x01	; 1
     a26:	50 e0       	ldi	r21, 0x00	; 0
     a28:	60 e0       	ldi	r22, 0x00	; 0
     a2a:	70 e0       	ldi	r23, 0x00	; 0
     a2c:	4a 29       	or	r20, r10
     a2e:	5b 29       	or	r21, r11
     a30:	6c 29       	or	r22, r12
     a32:	7d 29       	or	r23, r13
     a34:	4d 83       	std	Y+5, r20	; 0x05
     a36:	5e 83       	std	Y+6, r21	; 0x06
     a38:	6f 83       	std	Y+7, r22	; 0x07
     a3a:	78 87       	std	Y+8, r23	; 0x08
     a3c:	8e e1       	ldi	r24, 0x1E	; 30
     a3e:	90 e0       	ldi	r25, 0x00	; 0
     a40:	8e 1b       	sub	r24, r30
     a42:	9f 0b       	sbc	r25, r31
     a44:	9c 83       	std	Y+4, r25	; 0x04
     a46:	8b 83       	std	Y+3, r24	; 0x03
     a48:	12 c0       	rjmp	.+36     	; 0xa6e <__floatunsisf+0xe0>
     a4a:	30 97       	sbiw	r30, 0x00	; 0
     a4c:	81 f0       	breq	.+32     	; 0xa6e <__floatunsisf+0xe0>
     a4e:	0e 2e       	mov	r0, r30
     a50:	04 c0       	rjmp	.+8      	; 0xa5a <__floatunsisf+0xcc>
     a52:	ee 0c       	add	r14, r14
     a54:	ff 1c       	adc	r15, r15
     a56:	00 1f       	adc	r16, r16
     a58:	11 1f       	adc	r17, r17
     a5a:	0a 94       	dec	r0
     a5c:	d2 f7       	brpl	.-12     	; 0xa52 <__floatunsisf+0xc4>
     a5e:	ed 82       	std	Y+5, r14	; 0x05
     a60:	fe 82       	std	Y+6, r15	; 0x06
     a62:	0f 83       	std	Y+7, r16	; 0x07
     a64:	18 87       	std	Y+8, r17	; 0x08
     a66:	ce 1a       	sub	r12, r30
     a68:	df 0a       	sbc	r13, r31
     a6a:	dc 82       	std	Y+4, r13	; 0x04
     a6c:	cb 82       	std	Y+3, r12	; 0x03
     a6e:	1a 82       	std	Y+2, r1	; 0x02
     a70:	ce 01       	movw	r24, r28
     a72:	01 96       	adiw	r24, 0x01	; 1
     a74:	0e 94 8f 05 	call	0xb1e	; 0xb1e <__pack_f>
     a78:	28 96       	adiw	r28, 0x08	; 8
     a7a:	ea e0       	ldi	r30, 0x0A	; 10
     a7c:	0c 94 8c 16 	jmp	0x2d18	; 0x2d18 <__epilogue_restores__+0x10>

00000a80 <__clzsi2>:
     a80:	ef 92       	push	r14
     a82:	ff 92       	push	r15
     a84:	0f 93       	push	r16
     a86:	1f 93       	push	r17
     a88:	7b 01       	movw	r14, r22
     a8a:	8c 01       	movw	r16, r24
     a8c:	80 e0       	ldi	r24, 0x00	; 0
     a8e:	e8 16       	cp	r14, r24
     a90:	80 e0       	ldi	r24, 0x00	; 0
     a92:	f8 06       	cpc	r15, r24
     a94:	81 e0       	ldi	r24, 0x01	; 1
     a96:	08 07       	cpc	r16, r24
     a98:	80 e0       	ldi	r24, 0x00	; 0
     a9a:	18 07       	cpc	r17, r24
     a9c:	88 f4       	brcc	.+34     	; 0xac0 <__clzsi2+0x40>
     a9e:	8f ef       	ldi	r24, 0xFF	; 255
     aa0:	e8 16       	cp	r14, r24
     aa2:	f1 04       	cpc	r15, r1
     aa4:	01 05       	cpc	r16, r1
     aa6:	11 05       	cpc	r17, r1
     aa8:	31 f0       	breq	.+12     	; 0xab6 <__clzsi2+0x36>
     aaa:	28 f0       	brcs	.+10     	; 0xab6 <__clzsi2+0x36>
     aac:	88 e0       	ldi	r24, 0x08	; 8
     aae:	90 e0       	ldi	r25, 0x00	; 0
     ab0:	a0 e0       	ldi	r26, 0x00	; 0
     ab2:	b0 e0       	ldi	r27, 0x00	; 0
     ab4:	17 c0       	rjmp	.+46     	; 0xae4 <__clzsi2+0x64>
     ab6:	80 e0       	ldi	r24, 0x00	; 0
     ab8:	90 e0       	ldi	r25, 0x00	; 0
     aba:	a0 e0       	ldi	r26, 0x00	; 0
     abc:	b0 e0       	ldi	r27, 0x00	; 0
     abe:	12 c0       	rjmp	.+36     	; 0xae4 <__clzsi2+0x64>
     ac0:	80 e0       	ldi	r24, 0x00	; 0
     ac2:	e8 16       	cp	r14, r24
     ac4:	80 e0       	ldi	r24, 0x00	; 0
     ac6:	f8 06       	cpc	r15, r24
     ac8:	80 e0       	ldi	r24, 0x00	; 0
     aca:	08 07       	cpc	r16, r24
     acc:	81 e0       	ldi	r24, 0x01	; 1
     ace:	18 07       	cpc	r17, r24
     ad0:	28 f0       	brcs	.+10     	; 0xadc <__clzsi2+0x5c>
     ad2:	88 e1       	ldi	r24, 0x18	; 24
     ad4:	90 e0       	ldi	r25, 0x00	; 0
     ad6:	a0 e0       	ldi	r26, 0x00	; 0
     ad8:	b0 e0       	ldi	r27, 0x00	; 0
     ada:	04 c0       	rjmp	.+8      	; 0xae4 <__clzsi2+0x64>
     adc:	80 e1       	ldi	r24, 0x10	; 16
     ade:	90 e0       	ldi	r25, 0x00	; 0
     ae0:	a0 e0       	ldi	r26, 0x00	; 0
     ae2:	b0 e0       	ldi	r27, 0x00	; 0
     ae4:	20 e2       	ldi	r18, 0x20	; 32
     ae6:	30 e0       	ldi	r19, 0x00	; 0
     ae8:	40 e0       	ldi	r20, 0x00	; 0
     aea:	50 e0       	ldi	r21, 0x00	; 0
     aec:	28 1b       	sub	r18, r24
     aee:	39 0b       	sbc	r19, r25
     af0:	4a 0b       	sbc	r20, r26
     af2:	5b 0b       	sbc	r21, r27
     af4:	04 c0       	rjmp	.+8      	; 0xafe <__clzsi2+0x7e>
     af6:	16 95       	lsr	r17
     af8:	07 95       	ror	r16
     afa:	f7 94       	ror	r15
     afc:	e7 94       	ror	r14
     afe:	8a 95       	dec	r24
     b00:	d2 f7       	brpl	.-12     	; 0xaf6 <__clzsi2+0x76>
     b02:	f7 01       	movw	r30, r14
     b04:	e8 5f       	subi	r30, 0xF8	; 248
     b06:	fe 4f       	sbci	r31, 0xFE	; 254
     b08:	80 81       	ld	r24, Z
     b0a:	28 1b       	sub	r18, r24
     b0c:	31 09       	sbc	r19, r1
     b0e:	41 09       	sbc	r20, r1
     b10:	51 09       	sbc	r21, r1
     b12:	c9 01       	movw	r24, r18
     b14:	1f 91       	pop	r17
     b16:	0f 91       	pop	r16
     b18:	ff 90       	pop	r15
     b1a:	ef 90       	pop	r14
     b1c:	08 95       	ret

00000b1e <__pack_f>:
     b1e:	df 92       	push	r13
     b20:	ef 92       	push	r14
     b22:	ff 92       	push	r15
     b24:	0f 93       	push	r16
     b26:	1f 93       	push	r17
     b28:	fc 01       	movw	r30, r24
     b2a:	e4 80       	ldd	r14, Z+4	; 0x04
     b2c:	f5 80       	ldd	r15, Z+5	; 0x05
     b2e:	06 81       	ldd	r16, Z+6	; 0x06
     b30:	17 81       	ldd	r17, Z+7	; 0x07
     b32:	d1 80       	ldd	r13, Z+1	; 0x01
     b34:	80 81       	ld	r24, Z
     b36:	82 30       	cpi	r24, 0x02	; 2
     b38:	48 f4       	brcc	.+18     	; 0xb4c <__pack_f+0x2e>
     b3a:	80 e0       	ldi	r24, 0x00	; 0
     b3c:	90 e0       	ldi	r25, 0x00	; 0
     b3e:	a0 e1       	ldi	r26, 0x10	; 16
     b40:	b0 e0       	ldi	r27, 0x00	; 0
     b42:	e8 2a       	or	r14, r24
     b44:	f9 2a       	or	r15, r25
     b46:	0a 2b       	or	r16, r26
     b48:	1b 2b       	or	r17, r27
     b4a:	a5 c0       	rjmp	.+330    	; 0xc96 <__pack_f+0x178>
     b4c:	84 30       	cpi	r24, 0x04	; 4
     b4e:	09 f4       	brne	.+2      	; 0xb52 <__pack_f+0x34>
     b50:	9f c0       	rjmp	.+318    	; 0xc90 <__pack_f+0x172>
     b52:	82 30       	cpi	r24, 0x02	; 2
     b54:	21 f4       	brne	.+8      	; 0xb5e <__pack_f+0x40>
     b56:	ee 24       	eor	r14, r14
     b58:	ff 24       	eor	r15, r15
     b5a:	87 01       	movw	r16, r14
     b5c:	05 c0       	rjmp	.+10     	; 0xb68 <__pack_f+0x4a>
     b5e:	e1 14       	cp	r14, r1
     b60:	f1 04       	cpc	r15, r1
     b62:	01 05       	cpc	r16, r1
     b64:	11 05       	cpc	r17, r1
     b66:	19 f4       	brne	.+6      	; 0xb6e <__pack_f+0x50>
     b68:	e0 e0       	ldi	r30, 0x00	; 0
     b6a:	f0 e0       	ldi	r31, 0x00	; 0
     b6c:	96 c0       	rjmp	.+300    	; 0xc9a <__pack_f+0x17c>
     b6e:	62 81       	ldd	r22, Z+2	; 0x02
     b70:	73 81       	ldd	r23, Z+3	; 0x03
     b72:	9f ef       	ldi	r25, 0xFF	; 255
     b74:	62 38       	cpi	r22, 0x82	; 130
     b76:	79 07       	cpc	r23, r25
     b78:	0c f0       	brlt	.+2      	; 0xb7c <__pack_f+0x5e>
     b7a:	5b c0       	rjmp	.+182    	; 0xc32 <__pack_f+0x114>
     b7c:	22 e8       	ldi	r18, 0x82	; 130
     b7e:	3f ef       	ldi	r19, 0xFF	; 255
     b80:	26 1b       	sub	r18, r22
     b82:	37 0b       	sbc	r19, r23
     b84:	2a 31       	cpi	r18, 0x1A	; 26
     b86:	31 05       	cpc	r19, r1
     b88:	2c f0       	brlt	.+10     	; 0xb94 <__pack_f+0x76>
     b8a:	20 e0       	ldi	r18, 0x00	; 0
     b8c:	30 e0       	ldi	r19, 0x00	; 0
     b8e:	40 e0       	ldi	r20, 0x00	; 0
     b90:	50 e0       	ldi	r21, 0x00	; 0
     b92:	2a c0       	rjmp	.+84     	; 0xbe8 <__pack_f+0xca>
     b94:	b8 01       	movw	r22, r16
     b96:	a7 01       	movw	r20, r14
     b98:	02 2e       	mov	r0, r18
     b9a:	04 c0       	rjmp	.+8      	; 0xba4 <__pack_f+0x86>
     b9c:	76 95       	lsr	r23
     b9e:	67 95       	ror	r22
     ba0:	57 95       	ror	r21
     ba2:	47 95       	ror	r20
     ba4:	0a 94       	dec	r0
     ba6:	d2 f7       	brpl	.-12     	; 0xb9c <__pack_f+0x7e>
     ba8:	81 e0       	ldi	r24, 0x01	; 1
     baa:	90 e0       	ldi	r25, 0x00	; 0
     bac:	a0 e0       	ldi	r26, 0x00	; 0
     bae:	b0 e0       	ldi	r27, 0x00	; 0
     bb0:	04 c0       	rjmp	.+8      	; 0xbba <__pack_f+0x9c>
     bb2:	88 0f       	add	r24, r24
     bb4:	99 1f       	adc	r25, r25
     bb6:	aa 1f       	adc	r26, r26
     bb8:	bb 1f       	adc	r27, r27
     bba:	2a 95       	dec	r18
     bbc:	d2 f7       	brpl	.-12     	; 0xbb2 <__pack_f+0x94>
     bbe:	01 97       	sbiw	r24, 0x01	; 1
     bc0:	a1 09       	sbc	r26, r1
     bc2:	b1 09       	sbc	r27, r1
     bc4:	8e 21       	and	r24, r14
     bc6:	9f 21       	and	r25, r15
     bc8:	a0 23       	and	r26, r16
     bca:	b1 23       	and	r27, r17
     bcc:	00 97       	sbiw	r24, 0x00	; 0
     bce:	a1 05       	cpc	r26, r1
     bd0:	b1 05       	cpc	r27, r1
     bd2:	21 f0       	breq	.+8      	; 0xbdc <__pack_f+0xbe>
     bd4:	81 e0       	ldi	r24, 0x01	; 1
     bd6:	90 e0       	ldi	r25, 0x00	; 0
     bd8:	a0 e0       	ldi	r26, 0x00	; 0
     bda:	b0 e0       	ldi	r27, 0x00	; 0
     bdc:	9a 01       	movw	r18, r20
     bde:	ab 01       	movw	r20, r22
     be0:	28 2b       	or	r18, r24
     be2:	39 2b       	or	r19, r25
     be4:	4a 2b       	or	r20, r26
     be6:	5b 2b       	or	r21, r27
     be8:	da 01       	movw	r26, r20
     bea:	c9 01       	movw	r24, r18
     bec:	8f 77       	andi	r24, 0x7F	; 127
     bee:	90 70       	andi	r25, 0x00	; 0
     bf0:	a0 70       	andi	r26, 0x00	; 0
     bf2:	b0 70       	andi	r27, 0x00	; 0
     bf4:	80 34       	cpi	r24, 0x40	; 64
     bf6:	91 05       	cpc	r25, r1
     bf8:	a1 05       	cpc	r26, r1
     bfa:	b1 05       	cpc	r27, r1
     bfc:	39 f4       	brne	.+14     	; 0xc0c <__pack_f+0xee>
     bfe:	27 ff       	sbrs	r18, 7
     c00:	09 c0       	rjmp	.+18     	; 0xc14 <__pack_f+0xf6>
     c02:	20 5c       	subi	r18, 0xC0	; 192
     c04:	3f 4f       	sbci	r19, 0xFF	; 255
     c06:	4f 4f       	sbci	r20, 0xFF	; 255
     c08:	5f 4f       	sbci	r21, 0xFF	; 255
     c0a:	04 c0       	rjmp	.+8      	; 0xc14 <__pack_f+0xf6>
     c0c:	21 5c       	subi	r18, 0xC1	; 193
     c0e:	3f 4f       	sbci	r19, 0xFF	; 255
     c10:	4f 4f       	sbci	r20, 0xFF	; 255
     c12:	5f 4f       	sbci	r21, 0xFF	; 255
     c14:	e0 e0       	ldi	r30, 0x00	; 0
     c16:	f0 e0       	ldi	r31, 0x00	; 0
     c18:	20 30       	cpi	r18, 0x00	; 0
     c1a:	a0 e0       	ldi	r26, 0x00	; 0
     c1c:	3a 07       	cpc	r19, r26
     c1e:	a0 e0       	ldi	r26, 0x00	; 0
     c20:	4a 07       	cpc	r20, r26
     c22:	a0 e4       	ldi	r26, 0x40	; 64
     c24:	5a 07       	cpc	r21, r26
     c26:	10 f0       	brcs	.+4      	; 0xc2c <__pack_f+0x10e>
     c28:	e1 e0       	ldi	r30, 0x01	; 1
     c2a:	f0 e0       	ldi	r31, 0x00	; 0
     c2c:	79 01       	movw	r14, r18
     c2e:	8a 01       	movw	r16, r20
     c30:	27 c0       	rjmp	.+78     	; 0xc80 <__pack_f+0x162>
     c32:	60 38       	cpi	r22, 0x80	; 128
     c34:	71 05       	cpc	r23, r1
     c36:	64 f5       	brge	.+88     	; 0xc90 <__pack_f+0x172>
     c38:	fb 01       	movw	r30, r22
     c3a:	e1 58       	subi	r30, 0x81	; 129
     c3c:	ff 4f       	sbci	r31, 0xFF	; 255
     c3e:	d8 01       	movw	r26, r16
     c40:	c7 01       	movw	r24, r14
     c42:	8f 77       	andi	r24, 0x7F	; 127
     c44:	90 70       	andi	r25, 0x00	; 0
     c46:	a0 70       	andi	r26, 0x00	; 0
     c48:	b0 70       	andi	r27, 0x00	; 0
     c4a:	80 34       	cpi	r24, 0x40	; 64
     c4c:	91 05       	cpc	r25, r1
     c4e:	a1 05       	cpc	r26, r1
     c50:	b1 05       	cpc	r27, r1
     c52:	39 f4       	brne	.+14     	; 0xc62 <__pack_f+0x144>
     c54:	e7 fe       	sbrs	r14, 7
     c56:	0d c0       	rjmp	.+26     	; 0xc72 <__pack_f+0x154>
     c58:	80 e4       	ldi	r24, 0x40	; 64
     c5a:	90 e0       	ldi	r25, 0x00	; 0
     c5c:	a0 e0       	ldi	r26, 0x00	; 0
     c5e:	b0 e0       	ldi	r27, 0x00	; 0
     c60:	04 c0       	rjmp	.+8      	; 0xc6a <__pack_f+0x14c>
     c62:	8f e3       	ldi	r24, 0x3F	; 63
     c64:	90 e0       	ldi	r25, 0x00	; 0
     c66:	a0 e0       	ldi	r26, 0x00	; 0
     c68:	b0 e0       	ldi	r27, 0x00	; 0
     c6a:	e8 0e       	add	r14, r24
     c6c:	f9 1e       	adc	r15, r25
     c6e:	0a 1f       	adc	r16, r26
     c70:	1b 1f       	adc	r17, r27
     c72:	17 ff       	sbrs	r17, 7
     c74:	05 c0       	rjmp	.+10     	; 0xc80 <__pack_f+0x162>
     c76:	16 95       	lsr	r17
     c78:	07 95       	ror	r16
     c7a:	f7 94       	ror	r15
     c7c:	e7 94       	ror	r14
     c7e:	31 96       	adiw	r30, 0x01	; 1
     c80:	87 e0       	ldi	r24, 0x07	; 7
     c82:	16 95       	lsr	r17
     c84:	07 95       	ror	r16
     c86:	f7 94       	ror	r15
     c88:	e7 94       	ror	r14
     c8a:	8a 95       	dec	r24
     c8c:	d1 f7       	brne	.-12     	; 0xc82 <__pack_f+0x164>
     c8e:	05 c0       	rjmp	.+10     	; 0xc9a <__pack_f+0x17c>
     c90:	ee 24       	eor	r14, r14
     c92:	ff 24       	eor	r15, r15
     c94:	87 01       	movw	r16, r14
     c96:	ef ef       	ldi	r30, 0xFF	; 255
     c98:	f0 e0       	ldi	r31, 0x00	; 0
     c9a:	6e 2f       	mov	r22, r30
     c9c:	67 95       	ror	r22
     c9e:	66 27       	eor	r22, r22
     ca0:	67 95       	ror	r22
     ca2:	90 2f       	mov	r25, r16
     ca4:	9f 77       	andi	r25, 0x7F	; 127
     ca6:	d7 94       	ror	r13
     ca8:	dd 24       	eor	r13, r13
     caa:	d7 94       	ror	r13
     cac:	8e 2f       	mov	r24, r30
     cae:	86 95       	lsr	r24
     cb0:	49 2f       	mov	r20, r25
     cb2:	46 2b       	or	r20, r22
     cb4:	58 2f       	mov	r21, r24
     cb6:	5d 29       	or	r21, r13
     cb8:	b7 01       	movw	r22, r14
     cba:	ca 01       	movw	r24, r20
     cbc:	1f 91       	pop	r17
     cbe:	0f 91       	pop	r16
     cc0:	ff 90       	pop	r15
     cc2:	ef 90       	pop	r14
     cc4:	df 90       	pop	r13
     cc6:	08 95       	ret

00000cc8 <__unpack_f>:
     cc8:	fc 01       	movw	r30, r24
     cca:	db 01       	movw	r26, r22
     ccc:	40 81       	ld	r20, Z
     cce:	51 81       	ldd	r21, Z+1	; 0x01
     cd0:	22 81       	ldd	r18, Z+2	; 0x02
     cd2:	62 2f       	mov	r22, r18
     cd4:	6f 77       	andi	r22, 0x7F	; 127
     cd6:	70 e0       	ldi	r23, 0x00	; 0
     cd8:	22 1f       	adc	r18, r18
     cda:	22 27       	eor	r18, r18
     cdc:	22 1f       	adc	r18, r18
     cde:	93 81       	ldd	r25, Z+3	; 0x03
     ce0:	89 2f       	mov	r24, r25
     ce2:	88 0f       	add	r24, r24
     ce4:	82 2b       	or	r24, r18
     ce6:	28 2f       	mov	r18, r24
     ce8:	30 e0       	ldi	r19, 0x00	; 0
     cea:	99 1f       	adc	r25, r25
     cec:	99 27       	eor	r25, r25
     cee:	99 1f       	adc	r25, r25
     cf0:	11 96       	adiw	r26, 0x01	; 1
     cf2:	9c 93       	st	X, r25
     cf4:	11 97       	sbiw	r26, 0x01	; 1
     cf6:	21 15       	cp	r18, r1
     cf8:	31 05       	cpc	r19, r1
     cfa:	a9 f5       	brne	.+106    	; 0xd66 <__unpack_f+0x9e>
     cfc:	41 15       	cp	r20, r1
     cfe:	51 05       	cpc	r21, r1
     d00:	61 05       	cpc	r22, r1
     d02:	71 05       	cpc	r23, r1
     d04:	11 f4       	brne	.+4      	; 0xd0a <__unpack_f+0x42>
     d06:	82 e0       	ldi	r24, 0x02	; 2
     d08:	37 c0       	rjmp	.+110    	; 0xd78 <__unpack_f+0xb0>
     d0a:	82 e8       	ldi	r24, 0x82	; 130
     d0c:	9f ef       	ldi	r25, 0xFF	; 255
     d0e:	13 96       	adiw	r26, 0x03	; 3
     d10:	9c 93       	st	X, r25
     d12:	8e 93       	st	-X, r24
     d14:	12 97       	sbiw	r26, 0x02	; 2
     d16:	9a 01       	movw	r18, r20
     d18:	ab 01       	movw	r20, r22
     d1a:	67 e0       	ldi	r22, 0x07	; 7
     d1c:	22 0f       	add	r18, r18
     d1e:	33 1f       	adc	r19, r19
     d20:	44 1f       	adc	r20, r20
     d22:	55 1f       	adc	r21, r21
     d24:	6a 95       	dec	r22
     d26:	d1 f7       	brne	.-12     	; 0xd1c <__unpack_f+0x54>
     d28:	83 e0       	ldi	r24, 0x03	; 3
     d2a:	8c 93       	st	X, r24
     d2c:	0d c0       	rjmp	.+26     	; 0xd48 <__unpack_f+0x80>
     d2e:	22 0f       	add	r18, r18
     d30:	33 1f       	adc	r19, r19
     d32:	44 1f       	adc	r20, r20
     d34:	55 1f       	adc	r21, r21
     d36:	12 96       	adiw	r26, 0x02	; 2
     d38:	8d 91       	ld	r24, X+
     d3a:	9c 91       	ld	r25, X
     d3c:	13 97       	sbiw	r26, 0x03	; 3
     d3e:	01 97       	sbiw	r24, 0x01	; 1
     d40:	13 96       	adiw	r26, 0x03	; 3
     d42:	9c 93       	st	X, r25
     d44:	8e 93       	st	-X, r24
     d46:	12 97       	sbiw	r26, 0x02	; 2
     d48:	20 30       	cpi	r18, 0x00	; 0
     d4a:	80 e0       	ldi	r24, 0x00	; 0
     d4c:	38 07       	cpc	r19, r24
     d4e:	80 e0       	ldi	r24, 0x00	; 0
     d50:	48 07       	cpc	r20, r24
     d52:	80 e4       	ldi	r24, 0x40	; 64
     d54:	58 07       	cpc	r21, r24
     d56:	58 f3       	brcs	.-42     	; 0xd2e <__unpack_f+0x66>
     d58:	14 96       	adiw	r26, 0x04	; 4
     d5a:	2d 93       	st	X+, r18
     d5c:	3d 93       	st	X+, r19
     d5e:	4d 93       	st	X+, r20
     d60:	5c 93       	st	X, r21
     d62:	17 97       	sbiw	r26, 0x07	; 7
     d64:	08 95       	ret
     d66:	2f 3f       	cpi	r18, 0xFF	; 255
     d68:	31 05       	cpc	r19, r1
     d6a:	79 f4       	brne	.+30     	; 0xd8a <__unpack_f+0xc2>
     d6c:	41 15       	cp	r20, r1
     d6e:	51 05       	cpc	r21, r1
     d70:	61 05       	cpc	r22, r1
     d72:	71 05       	cpc	r23, r1
     d74:	19 f4       	brne	.+6      	; 0xd7c <__unpack_f+0xb4>
     d76:	84 e0       	ldi	r24, 0x04	; 4
     d78:	8c 93       	st	X, r24
     d7a:	08 95       	ret
     d7c:	64 ff       	sbrs	r22, 4
     d7e:	03 c0       	rjmp	.+6      	; 0xd86 <__unpack_f+0xbe>
     d80:	81 e0       	ldi	r24, 0x01	; 1
     d82:	8c 93       	st	X, r24
     d84:	12 c0       	rjmp	.+36     	; 0xdaa <__unpack_f+0xe2>
     d86:	1c 92       	st	X, r1
     d88:	10 c0       	rjmp	.+32     	; 0xdaa <__unpack_f+0xe2>
     d8a:	2f 57       	subi	r18, 0x7F	; 127
     d8c:	30 40       	sbci	r19, 0x00	; 0
     d8e:	13 96       	adiw	r26, 0x03	; 3
     d90:	3c 93       	st	X, r19
     d92:	2e 93       	st	-X, r18
     d94:	12 97       	sbiw	r26, 0x02	; 2
     d96:	83 e0       	ldi	r24, 0x03	; 3
     d98:	8c 93       	st	X, r24
     d9a:	87 e0       	ldi	r24, 0x07	; 7
     d9c:	44 0f       	add	r20, r20
     d9e:	55 1f       	adc	r21, r21
     da0:	66 1f       	adc	r22, r22
     da2:	77 1f       	adc	r23, r23
     da4:	8a 95       	dec	r24
     da6:	d1 f7       	brne	.-12     	; 0xd9c <__unpack_f+0xd4>
     da8:	70 64       	ori	r23, 0x40	; 64
     daa:	14 96       	adiw	r26, 0x04	; 4
     dac:	4d 93       	st	X+, r20
     dae:	5d 93       	st	X+, r21
     db0:	6d 93       	st	X+, r22
     db2:	7c 93       	st	X, r23
     db4:	17 97       	sbiw	r26, 0x07	; 7
     db6:	08 95       	ret

00000db8 <__fpcmp_parts_f>:
     db8:	1f 93       	push	r17
     dba:	dc 01       	movw	r26, r24
     dbc:	fb 01       	movw	r30, r22
     dbe:	9c 91       	ld	r25, X
     dc0:	92 30       	cpi	r25, 0x02	; 2
     dc2:	08 f4       	brcc	.+2      	; 0xdc6 <__fpcmp_parts_f+0xe>
     dc4:	47 c0       	rjmp	.+142    	; 0xe54 <__fpcmp_parts_f+0x9c>
     dc6:	80 81       	ld	r24, Z
     dc8:	82 30       	cpi	r24, 0x02	; 2
     dca:	08 f4       	brcc	.+2      	; 0xdce <__fpcmp_parts_f+0x16>
     dcc:	43 c0       	rjmp	.+134    	; 0xe54 <__fpcmp_parts_f+0x9c>
     dce:	94 30       	cpi	r25, 0x04	; 4
     dd0:	51 f4       	brne	.+20     	; 0xde6 <__fpcmp_parts_f+0x2e>
     dd2:	11 96       	adiw	r26, 0x01	; 1
     dd4:	1c 91       	ld	r17, X
     dd6:	84 30       	cpi	r24, 0x04	; 4
     dd8:	99 f5       	brne	.+102    	; 0xe40 <__fpcmp_parts_f+0x88>
     dda:	81 81       	ldd	r24, Z+1	; 0x01
     ddc:	68 2f       	mov	r22, r24
     dde:	70 e0       	ldi	r23, 0x00	; 0
     de0:	61 1b       	sub	r22, r17
     de2:	71 09       	sbc	r23, r1
     de4:	3f c0       	rjmp	.+126    	; 0xe64 <__fpcmp_parts_f+0xac>
     de6:	84 30       	cpi	r24, 0x04	; 4
     de8:	21 f0       	breq	.+8      	; 0xdf2 <__fpcmp_parts_f+0x3a>
     dea:	92 30       	cpi	r25, 0x02	; 2
     dec:	31 f4       	brne	.+12     	; 0xdfa <__fpcmp_parts_f+0x42>
     dee:	82 30       	cpi	r24, 0x02	; 2
     df0:	b9 f1       	breq	.+110    	; 0xe60 <__fpcmp_parts_f+0xa8>
     df2:	81 81       	ldd	r24, Z+1	; 0x01
     df4:	88 23       	and	r24, r24
     df6:	89 f1       	breq	.+98     	; 0xe5a <__fpcmp_parts_f+0xa2>
     df8:	2d c0       	rjmp	.+90     	; 0xe54 <__fpcmp_parts_f+0x9c>
     dfa:	11 96       	adiw	r26, 0x01	; 1
     dfc:	1c 91       	ld	r17, X
     dfe:	11 97       	sbiw	r26, 0x01	; 1
     e00:	82 30       	cpi	r24, 0x02	; 2
     e02:	f1 f0       	breq	.+60     	; 0xe40 <__fpcmp_parts_f+0x88>
     e04:	81 81       	ldd	r24, Z+1	; 0x01
     e06:	18 17       	cp	r17, r24
     e08:	d9 f4       	brne	.+54     	; 0xe40 <__fpcmp_parts_f+0x88>
     e0a:	12 96       	adiw	r26, 0x02	; 2
     e0c:	2d 91       	ld	r18, X+
     e0e:	3c 91       	ld	r19, X
     e10:	13 97       	sbiw	r26, 0x03	; 3
     e12:	82 81       	ldd	r24, Z+2	; 0x02
     e14:	93 81       	ldd	r25, Z+3	; 0x03
     e16:	82 17       	cp	r24, r18
     e18:	93 07       	cpc	r25, r19
     e1a:	94 f0       	brlt	.+36     	; 0xe40 <__fpcmp_parts_f+0x88>
     e1c:	28 17       	cp	r18, r24
     e1e:	39 07       	cpc	r19, r25
     e20:	bc f0       	brlt	.+46     	; 0xe50 <__fpcmp_parts_f+0x98>
     e22:	14 96       	adiw	r26, 0x04	; 4
     e24:	8d 91       	ld	r24, X+
     e26:	9d 91       	ld	r25, X+
     e28:	0d 90       	ld	r0, X+
     e2a:	bc 91       	ld	r27, X
     e2c:	a0 2d       	mov	r26, r0
     e2e:	24 81       	ldd	r18, Z+4	; 0x04
     e30:	35 81       	ldd	r19, Z+5	; 0x05
     e32:	46 81       	ldd	r20, Z+6	; 0x06
     e34:	57 81       	ldd	r21, Z+7	; 0x07
     e36:	28 17       	cp	r18, r24
     e38:	39 07       	cpc	r19, r25
     e3a:	4a 07       	cpc	r20, r26
     e3c:	5b 07       	cpc	r21, r27
     e3e:	18 f4       	brcc	.+6      	; 0xe46 <__fpcmp_parts_f+0x8e>
     e40:	11 23       	and	r17, r17
     e42:	41 f0       	breq	.+16     	; 0xe54 <__fpcmp_parts_f+0x9c>
     e44:	0a c0       	rjmp	.+20     	; 0xe5a <__fpcmp_parts_f+0xa2>
     e46:	82 17       	cp	r24, r18
     e48:	93 07       	cpc	r25, r19
     e4a:	a4 07       	cpc	r26, r20
     e4c:	b5 07       	cpc	r27, r21
     e4e:	40 f4       	brcc	.+16     	; 0xe60 <__fpcmp_parts_f+0xa8>
     e50:	11 23       	and	r17, r17
     e52:	19 f0       	breq	.+6      	; 0xe5a <__fpcmp_parts_f+0xa2>
     e54:	61 e0       	ldi	r22, 0x01	; 1
     e56:	70 e0       	ldi	r23, 0x00	; 0
     e58:	05 c0       	rjmp	.+10     	; 0xe64 <__fpcmp_parts_f+0xac>
     e5a:	6f ef       	ldi	r22, 0xFF	; 255
     e5c:	7f ef       	ldi	r23, 0xFF	; 255
     e5e:	02 c0       	rjmp	.+4      	; 0xe64 <__fpcmp_parts_f+0xac>
     e60:	60 e0       	ldi	r22, 0x00	; 0
     e62:	70 e0       	ldi	r23, 0x00	; 0
     e64:	cb 01       	movw	r24, r22
     e66:	1f 91       	pop	r17
     e68:	08 95       	ret

00000e6a <main>:
/*-------------------------------------------------------------------------
                             Main Function
 --------------------------------------------------------------------------*/

uint8 main (void)
{
     e6a:	df 93       	push	r29
     e6c:	cf 93       	push	r28
     e6e:	cd b7       	in	r28, 0x3d	; 61
     e70:	de b7       	in	r29, 0x3e	; 62
     e72:	6c 97       	sbiw	r28, 0x1c	; 28
     e74:	0f b6       	in	r0, 0x3f	; 63
     e76:	f8 94       	cli
     e78:	de bf       	out	0x3e, r29	; 62
     e7a:	0f be       	out	0x3f, r0	; 63
     e7c:	cd bf       	out	0x3d, r28	; 61
	sei();
     e7e:	78 94       	sei

	ICU_ConfigType icu3_config = {.clock=ICU_F_CPU_8, .edge=FALLING};
     e80:	82 e0       	ldi	r24, 0x02	; 2
     e82:	89 83       	std	Y+1, r24	; 0x01
     e84:	1a 82       	std	Y+2, r1	; 0x02
	ICU3_init(&icu3_config);
     e86:	ce 01       	movw	r24, r28
     e88:	01 96       	adiw	r24, 0x01	; 1
     e8a:	0e 94 1e 0b 	call	0x163c	; 0x163c <ICU3_init>
	ICU3_setCallBack(APP_edgeProcessing);
     e8e:	80 e9       	ldi	r24, 0x90	; 144
     e90:	99 e0       	ldi	r25, 0x09	; 9
     e92:	0e 94 67 0b 	call	0x16ce	; 0x16ce <ICU3_setCallBack>

	TIMER_ConfigType timer2_config = { .clock=EXTERNAL_RISING_EDGE, .mode=COMP, .OCRValue = 60};
     e96:	8d e0       	ldi	r24, 0x0D	; 13
     e98:	fe 01       	movw	r30, r28
     e9a:	33 96       	adiw	r30, 0x03	; 3
     e9c:	df 01       	movw	r26, r30
     e9e:	98 2f       	mov	r25, r24
     ea0:	1d 92       	st	X+, r1
     ea2:	9a 95       	dec	r25
     ea4:	e9 f7       	brne	.-6      	; 0xea0 <main+0x36>
     ea6:	87 e0       	ldi	r24, 0x07	; 7
     ea8:	8b 83       	std	Y+3, r24	; 0x03
     eaa:	82 e0       	ldi	r24, 0x02	; 2
     eac:	8c 83       	std	Y+4, r24	; 0x04
     eae:	8c e3       	ldi	r24, 0x3C	; 60
     eb0:	90 e0       	ldi	r25, 0x00	; 0
     eb2:	9e 83       	std	Y+6, r25	; 0x06
     eb4:	8d 83       	std	Y+5, r24	; 0x05
	TIMER2_init(&timer2_config);
     eb6:	ce 01       	movw	r24, r28
     eb8:	03 96       	adiw	r24, 0x03	; 3
     eba:	0e 94 82 0f 	call	0x1f04	; 0x1f04 <TIMER2_init>
	TIMER2_callBack(revCounter_TIMER2);
     ebe:	8b ee       	ldi	r24, 0xEB	; 235
     ec0:	99 e0       	ldi	r25, 0x09	; 9
     ec2:	0e 94 48 10 	call	0x2090	; 0x2090 <TIMER2_callBack>
	/*--------------------- Description ----------------------
	 - Channel A -> Injection
	 - Channel B -> Ignition
	 ---------------------------------------------------------*/
	TIMER_ConfigType timer1_config = { .clock=EXTERNAL_RISING_EDGE, .mode=PWM, .ICR1Value=60 ,.OCRValue =injection_duty_cycle, .OC=NON_INVERTING,
	                                   .OCR1BValue=ignition_duty_cycle , .OC1B=NON_INVERTING};
     ec6:	80 91 2c 02 	lds	r24, 0x022C
     eca:	28 2f       	mov	r18, r24
     ecc:	30 e0       	ldi	r19, 0x00	; 0
     ece:	80 91 08 02 	lds	r24, 0x0208
     ed2:	48 2f       	mov	r20, r24
     ed4:	50 e0       	ldi	r21, 0x00	; 0
     ed6:	8d e0       	ldi	r24, 0x0D	; 13
     ed8:	fe 01       	movw	r30, r28
     eda:	70 96       	adiw	r30, 0x10	; 16
     edc:	df 01       	movw	r26, r30
     ede:	98 2f       	mov	r25, r24
     ee0:	1d 92       	st	X+, r1
     ee2:	9a 95       	dec	r25
     ee4:	e9 f7       	brne	.-6      	; 0xee0 <main+0x76>
     ee6:	87 e0       	ldi	r24, 0x07	; 7
     ee8:	88 8b       	std	Y+16, r24	; 0x10
     eea:	83 e0       	ldi	r24, 0x03	; 3
     eec:	89 8b       	std	Y+17, r24	; 0x11
     eee:	3b 8b       	std	Y+19, r19	; 0x13
     ef0:	2a 8b       	std	Y+18, r18	; 0x12
     ef2:	82 e0       	ldi	r24, 0x02	; 2
     ef4:	8c 8b       	std	Y+20, r24	; 0x14
     ef6:	5e 8b       	std	Y+22, r21	; 0x16
     ef8:	4d 8b       	std	Y+21, r20	; 0x15
     efa:	82 e0       	ldi	r24, 0x02	; 2
     efc:	8f 8b       	std	Y+23, r24	; 0x17
     efe:	8c e3       	ldi	r24, 0x3C	; 60
     f00:	90 e0       	ldi	r25, 0x00	; 0
     f02:	9c 8f       	std	Y+28, r25	; 0x1c
     f04:	8b 8f       	std	Y+27, r24	; 0x1b
	TIMER1_init(&timer1_config);
     f06:	ce 01       	movw	r24, r28
     f08:	40 96       	adiw	r24, 0x10	; 16
     f0a:	0e 94 64 10 	call	0x20c8	; 0x20c8 <TIMER1_init>
	TIMER1_stopTimer();
     f0e:	0e 94 f3 11 	call	0x23e6	; 0x23e6 <TIMER1_stopTimer>

	DDRA = 0xFF;
     f12:	ea e3       	ldi	r30, 0x3A	; 58
     f14:	f0 e0       	ldi	r31, 0x00	; 0
     f16:	8f ef       	ldi	r24, 0xFF	; 255
     f18:	80 83       	st	Z, r24
		 - PA2 -> Injection 4
		 - PA3 -> Injection 2
		 - PA4 -> Ignition Cylinder 1 & 4
		 - PA5 -> Ignition Cylinder 2 & 3
		 ----------------------------------------------------------- */
		if (rev==0)
     f1a:	80 91 0e 02 	lds	r24, 0x020E
     f1e:	88 23       	and	r24, r24
     f20:	09 f0       	breq	.+2      	; 0xf24 <main+0xba>
     f22:	79 c0       	rjmp	.+242    	; 0x1016 <main+0x1ac>
		{
			/**/
			if(TCNT2 == ignition_cylinder1_4_angle_on)
     f24:	e4 e4       	ldi	r30, 0x44	; 68
     f26:	f0 e0       	ldi	r31, 0x00	; 0
     f28:	90 81       	ld	r25, Z
     f2a:	80 91 09 02 	lds	r24, 0x0209
     f2e:	98 17       	cp	r25, r24
     f30:	51 f4       	brne	.+20     	; 0xf46 <main+0xdc>
			{
				TIMER1_restartTimer();
     f32:	0e 94 01 12 	call	0x2402	; 0x2402 <TIMER1_restartTimer>
				SET_BIT(PORTA,PA4);
     f36:	ab e3       	ldi	r26, 0x3B	; 59
     f38:	b0 e0       	ldi	r27, 0x00	; 0
     f3a:	eb e3       	ldi	r30, 0x3B	; 59
     f3c:	f0 e0       	ldi	r31, 0x00	; 0
     f3e:	80 81       	ld	r24, Z
     f40:	80 61       	ori	r24, 0x10	; 16
     f42:	8c 93       	st	X, r24
     f44:	68 c0       	rjmp	.+208    	; 0x1016 <main+0x1ac>
			}
			else if(TCNT2 == ignition_cylinder1_4_angle_off)
     f46:	e4 e4       	ldi	r30, 0x44	; 68
     f48:	f0 e0       	ldi	r31, 0x00	; 0
     f4a:	90 81       	ld	r25, Z
     f4c:	80 91 0a 02 	lds	r24, 0x020A
     f50:	98 17       	cp	r25, r24
     f52:	41 f4       	brne	.+16     	; 0xf64 <main+0xfa>
			{
				CLEAR_BIT(PORTA,PA4);
     f54:	ab e3       	ldi	r26, 0x3B	; 59
     f56:	b0 e0       	ldi	r27, 0x00	; 0
     f58:	eb e3       	ldi	r30, 0x3B	; 59
     f5a:	f0 e0       	ldi	r31, 0x00	; 0
     f5c:	80 81       	ld	r24, Z
     f5e:	8f 7e       	andi	r24, 0xEF	; 239
     f60:	8c 93       	st	X, r24
     f62:	59 c0       	rjmp	.+178    	; 0x1016 <main+0x1ac>
			}
			/**/
			else if(TCNT2 == injection_cylinder1_4_angle_on)
     f64:	e4 e4       	ldi	r30, 0x44	; 68
     f66:	f0 e0       	ldi	r31, 0x00	; 0
     f68:	90 81       	ld	r25, Z
     f6a:	80 91 2d 02 	lds	r24, 0x022D
     f6e:	98 17       	cp	r25, r24
     f70:	41 f4       	brne	.+16     	; 0xf82 <main+0x118>
			{
				SET_BIT(PORTA,PA2);
     f72:	ab e3       	ldi	r26, 0x3B	; 59
     f74:	b0 e0       	ldi	r27, 0x00	; 0
     f76:	eb e3       	ldi	r30, 0x3B	; 59
     f78:	f0 e0       	ldi	r31, 0x00	; 0
     f7a:	80 81       	ld	r24, Z
     f7c:	84 60       	ori	r24, 0x04	; 4
     f7e:	8c 93       	st	X, r24
     f80:	4a c0       	rjmp	.+148    	; 0x1016 <main+0x1ac>
			}
			else if(TCNT2 == injection_cylinder1_4_angle_off)
     f82:	e4 e4       	ldi	r30, 0x44	; 68
     f84:	f0 e0       	ldi	r31, 0x00	; 0
     f86:	90 81       	ld	r25, Z
     f88:	80 91 2a 02 	lds	r24, 0x022A
     f8c:	98 17       	cp	r25, r24
     f8e:	41 f4       	brne	.+16     	; 0xfa0 <main+0x136>
			{
				CLEAR_BIT(PORTA,PA2);
     f90:	ab e3       	ldi	r26, 0x3B	; 59
     f92:	b0 e0       	ldi	r27, 0x00	; 0
     f94:	eb e3       	ldi	r30, 0x3B	; 59
     f96:	f0 e0       	ldi	r31, 0x00	; 0
     f98:	80 81       	ld	r24, Z
     f9a:	8b 7f       	andi	r24, 0xFB	; 251
     f9c:	8c 93       	st	X, r24
     f9e:	3b c0       	rjmp	.+118    	; 0x1016 <main+0x1ac>
			}
			/**/
			else if(TCNT2 == ignition_cylinder2_3_angle_on)
     fa0:	e4 e4       	ldi	r30, 0x44	; 68
     fa2:	f0 e0       	ldi	r31, 0x00	; 0
     fa4:	90 81       	ld	r25, Z
     fa6:	80 91 0b 02 	lds	r24, 0x020B
     faa:	98 17       	cp	r25, r24
     fac:	41 f4       	brne	.+16     	; 0xfbe <main+0x154>
			{
				SET_BIT(PORTA,PA5);
     fae:	ab e3       	ldi	r26, 0x3B	; 59
     fb0:	b0 e0       	ldi	r27, 0x00	; 0
     fb2:	eb e3       	ldi	r30, 0x3B	; 59
     fb4:	f0 e0       	ldi	r31, 0x00	; 0
     fb6:	80 81       	ld	r24, Z
     fb8:	80 62       	ori	r24, 0x20	; 32
     fba:	8c 93       	st	X, r24
     fbc:	2c c0       	rjmp	.+88     	; 0x1016 <main+0x1ac>
			}
			else if(TCNT2 == ignition_cylinder2_3_angle_off)
     fbe:	e4 e4       	ldi	r30, 0x44	; 68
     fc0:	f0 e0       	ldi	r31, 0x00	; 0
     fc2:	90 81       	ld	r25, Z
     fc4:	80 91 0c 02 	lds	r24, 0x020C
     fc8:	98 17       	cp	r25, r24
     fca:	41 f4       	brne	.+16     	; 0xfdc <main+0x172>
			{
				CLEAR_BIT(PORTA,PA5);
     fcc:	ab e3       	ldi	r26, 0x3B	; 59
     fce:	b0 e0       	ldi	r27, 0x00	; 0
     fd0:	eb e3       	ldi	r30, 0x3B	; 59
     fd2:	f0 e0       	ldi	r31, 0x00	; 0
     fd4:	80 81       	ld	r24, Z
     fd6:	8f 7d       	andi	r24, 0xDF	; 223
     fd8:	8c 93       	st	X, r24
     fda:	1d c0       	rjmp	.+58     	; 0x1016 <main+0x1ac>
			}
			/**/
			else if(TCNT2 == injection_cylinder2_3_angle_on)
     fdc:	e4 e4       	ldi	r30, 0x44	; 68
     fde:	f0 e0       	ldi	r31, 0x00	; 0
     fe0:	90 81       	ld	r25, Z
     fe2:	80 91 2b 02 	lds	r24, 0x022B
     fe6:	98 17       	cp	r25, r24
     fe8:	41 f4       	brne	.+16     	; 0xffa <main+0x190>
			{
				SET_BIT(PORTA,PA3);
     fea:	ab e3       	ldi	r26, 0x3B	; 59
     fec:	b0 e0       	ldi	r27, 0x00	; 0
     fee:	eb e3       	ldi	r30, 0x3B	; 59
     ff0:	f0 e0       	ldi	r31, 0x00	; 0
     ff2:	80 81       	ld	r24, Z
     ff4:	88 60       	ori	r24, 0x08	; 8
     ff6:	8c 93       	st	X, r24
     ff8:	0e c0       	rjmp	.+28     	; 0x1016 <main+0x1ac>
			}
			else if(TCNT2 == injection_cylinder2_3_angle_off)
     ffa:	e4 e4       	ldi	r30, 0x44	; 68
     ffc:	f0 e0       	ldi	r31, 0x00	; 0
     ffe:	90 81       	ld	r25, Z
    1000:	80 91 2e 02 	lds	r24, 0x022E
    1004:	98 17       	cp	r25, r24
    1006:	39 f4       	brne	.+14     	; 0x1016 <main+0x1ac>
			{
				CLEAR_BIT(PORTA,PA3);
    1008:	ab e3       	ldi	r26, 0x3B	; 59
    100a:	b0 e0       	ldi	r27, 0x00	; 0
    100c:	eb e3       	ldi	r30, 0x3B	; 59
    100e:	f0 e0       	ldi	r31, 0x00	; 0
    1010:	80 81       	ld	r24, Z
    1012:	87 7f       	andi	r24, 0xF7	; 247
    1014:	8c 93       	st	X, r24
			}
		}

		/**/
		if (rev==1)
    1016:	80 91 0e 02 	lds	r24, 0x020E
    101a:	81 30       	cpi	r24, 0x01	; 1
    101c:	09 f0       	breq	.+2      	; 0x1020 <main+0x1b6>
    101e:	7d cf       	rjmp	.-262    	; 0xf1a <main+0xb0>
		{
			/**/
			if(TCNT2 == ignition_cylinder1_4_angle_on)
    1020:	e4 e4       	ldi	r30, 0x44	; 68
    1022:	f0 e0       	ldi	r31, 0x00	; 0
    1024:	90 81       	ld	r25, Z
    1026:	80 91 09 02 	lds	r24, 0x0209
    102a:	98 17       	cp	r25, r24
    102c:	41 f4       	brne	.+16     	; 0x103e <main+0x1d4>
			{
				SET_BIT(PORTA,PA4);
    102e:	ab e3       	ldi	r26, 0x3B	; 59
    1030:	b0 e0       	ldi	r27, 0x00	; 0
    1032:	eb e3       	ldi	r30, 0x3B	; 59
    1034:	f0 e0       	ldi	r31, 0x00	; 0
    1036:	80 81       	ld	r24, Z
    1038:	80 61       	ori	r24, 0x10	; 16
    103a:	8c 93       	st	X, r24
    103c:	6e cf       	rjmp	.-292    	; 0xf1a <main+0xb0>
			}
			else if(TCNT2 == ignition_cylinder1_4_angle_off)
    103e:	e4 e4       	ldi	r30, 0x44	; 68
    1040:	f0 e0       	ldi	r31, 0x00	; 0
    1042:	90 81       	ld	r25, Z
    1044:	80 91 0a 02 	lds	r24, 0x020A
    1048:	98 17       	cp	r25, r24
    104a:	41 f4       	brne	.+16     	; 0x105c <main+0x1f2>
			{
				CLEAR_BIT(PORTA,PA4);
    104c:	ab e3       	ldi	r26, 0x3B	; 59
    104e:	b0 e0       	ldi	r27, 0x00	; 0
    1050:	eb e3       	ldi	r30, 0x3B	; 59
    1052:	f0 e0       	ldi	r31, 0x00	; 0
    1054:	80 81       	ld	r24, Z
    1056:	8f 7e       	andi	r24, 0xEF	; 239
    1058:	8c 93       	st	X, r24
    105a:	5f cf       	rjmp	.-322    	; 0xf1a <main+0xb0>
			}
			/**/
			else if(TCNT2 == injection_cylinder1_4_angle_on)
    105c:	e4 e4       	ldi	r30, 0x44	; 68
    105e:	f0 e0       	ldi	r31, 0x00	; 0
    1060:	90 81       	ld	r25, Z
    1062:	80 91 2d 02 	lds	r24, 0x022D
    1066:	98 17       	cp	r25, r24
    1068:	41 f4       	brne	.+16     	; 0x107a <main+0x210>
			{
				SET_BIT(PORTA,PA0);
    106a:	ab e3       	ldi	r26, 0x3B	; 59
    106c:	b0 e0       	ldi	r27, 0x00	; 0
    106e:	eb e3       	ldi	r30, 0x3B	; 59
    1070:	f0 e0       	ldi	r31, 0x00	; 0
    1072:	80 81       	ld	r24, Z
    1074:	81 60       	ori	r24, 0x01	; 1
    1076:	8c 93       	st	X, r24
    1078:	50 cf       	rjmp	.-352    	; 0xf1a <main+0xb0>
			}
			else if(TCNT2 == injection_cylinder1_4_angle_off)
    107a:	e4 e4       	ldi	r30, 0x44	; 68
    107c:	f0 e0       	ldi	r31, 0x00	; 0
    107e:	90 81       	ld	r25, Z
    1080:	80 91 2a 02 	lds	r24, 0x022A
    1084:	98 17       	cp	r25, r24
    1086:	41 f4       	brne	.+16     	; 0x1098 <main+0x22e>
			{
				CLEAR_BIT(PORTA,PA0);
    1088:	ab e3       	ldi	r26, 0x3B	; 59
    108a:	b0 e0       	ldi	r27, 0x00	; 0
    108c:	eb e3       	ldi	r30, 0x3B	; 59
    108e:	f0 e0       	ldi	r31, 0x00	; 0
    1090:	80 81       	ld	r24, Z
    1092:	8e 7f       	andi	r24, 0xFE	; 254
    1094:	8c 93       	st	X, r24
    1096:	41 cf       	rjmp	.-382    	; 0xf1a <main+0xb0>
			}
			/**/
			else if(TCNT2 == ignition_cylinder2_3_angle_on)
    1098:	e4 e4       	ldi	r30, 0x44	; 68
    109a:	f0 e0       	ldi	r31, 0x00	; 0
    109c:	90 81       	ld	r25, Z
    109e:	80 91 0b 02 	lds	r24, 0x020B
    10a2:	98 17       	cp	r25, r24
    10a4:	41 f4       	brne	.+16     	; 0x10b6 <main+0x24c>
			{
				SET_BIT(PORTA,PA5);
    10a6:	ab e3       	ldi	r26, 0x3B	; 59
    10a8:	b0 e0       	ldi	r27, 0x00	; 0
    10aa:	eb e3       	ldi	r30, 0x3B	; 59
    10ac:	f0 e0       	ldi	r31, 0x00	; 0
    10ae:	80 81       	ld	r24, Z
    10b0:	80 62       	ori	r24, 0x20	; 32
    10b2:	8c 93       	st	X, r24
    10b4:	32 cf       	rjmp	.-412    	; 0xf1a <main+0xb0>
			}
			else if(TCNT2 == ignition_cylinder2_3_angle_off)
    10b6:	e4 e4       	ldi	r30, 0x44	; 68
    10b8:	f0 e0       	ldi	r31, 0x00	; 0
    10ba:	90 81       	ld	r25, Z
    10bc:	80 91 0c 02 	lds	r24, 0x020C
    10c0:	98 17       	cp	r25, r24
    10c2:	41 f4       	brne	.+16     	; 0x10d4 <main+0x26a>
			{
				CLEAR_BIT(PORTA,PA5);
    10c4:	ab e3       	ldi	r26, 0x3B	; 59
    10c6:	b0 e0       	ldi	r27, 0x00	; 0
    10c8:	eb e3       	ldi	r30, 0x3B	; 59
    10ca:	f0 e0       	ldi	r31, 0x00	; 0
    10cc:	80 81       	ld	r24, Z
    10ce:	8f 7d       	andi	r24, 0xDF	; 223
    10d0:	8c 93       	st	X, r24
    10d2:	23 cf       	rjmp	.-442    	; 0xf1a <main+0xb0>
			}
			/**/
			else if(TCNT2 == injection_cylinder2_3_angle_on)
    10d4:	e4 e4       	ldi	r30, 0x44	; 68
    10d6:	f0 e0       	ldi	r31, 0x00	; 0
    10d8:	90 81       	ld	r25, Z
    10da:	80 91 2b 02 	lds	r24, 0x022B
    10de:	98 17       	cp	r25, r24
    10e0:	41 f4       	brne	.+16     	; 0x10f2 <main+0x288>
			{
				SET_BIT(PORTA,PA1);
    10e2:	ab e3       	ldi	r26, 0x3B	; 59
    10e4:	b0 e0       	ldi	r27, 0x00	; 0
    10e6:	eb e3       	ldi	r30, 0x3B	; 59
    10e8:	f0 e0       	ldi	r31, 0x00	; 0
    10ea:	80 81       	ld	r24, Z
    10ec:	82 60       	ori	r24, 0x02	; 2
    10ee:	8c 93       	st	X, r24
    10f0:	14 cf       	rjmp	.-472    	; 0xf1a <main+0xb0>
			}
			else if(TCNT2 == injection_cylinder2_3_angle_off)
    10f2:	e4 e4       	ldi	r30, 0x44	; 68
    10f4:	f0 e0       	ldi	r31, 0x00	; 0
    10f6:	90 81       	ld	r25, Z
    10f8:	80 91 2e 02 	lds	r24, 0x022E
    10fc:	98 17       	cp	r25, r24
    10fe:	09 f0       	breq	.+2      	; 0x1102 <__stack+0x3>
    1100:	0c cf       	rjmp	.-488    	; 0xf1a <main+0xb0>
			{
				CLEAR_BIT(PORTA,PA1);
    1102:	ab e3       	ldi	r26, 0x3B	; 59
    1104:	b0 e0       	ldi	r27, 0x00	; 0
    1106:	eb e3       	ldi	r30, 0x3B	; 59
    1108:	f0 e0       	ldi	r31, 0x00	; 0
    110a:	80 81       	ld	r24, Z
    110c:	8d 7f       	andi	r24, 0xFD	; 253
    110e:	8c 93       	st	X, r24
    1110:	04 cf       	rjmp	.-504    	; 0xf1a <main+0xb0>

00001112 <startEngine>:
/*-------------------------------------------------------------------------
                              Functions
 --------------------------------------------------------------------------*/

void startEngine (void)
{
    1112:	af 92       	push	r10
    1114:	bf 92       	push	r11
    1116:	cf 92       	push	r12
    1118:	df 92       	push	r13
    111a:	ef 92       	push	r14
    111c:	ff 92       	push	r15
    111e:	0f 93       	push	r16
    1120:	1f 93       	push	r17
    1122:	df 93       	push	r29
    1124:	cf 93       	push	r28
    1126:	cd b7       	in	r28, 0x3d	; 61
    1128:	de b7       	in	r29, 0x3e	; 62
    112a:	2e 97       	sbiw	r28, 0x0e	; 14
    112c:	0f b6       	in	r0, 0x3f	; 63
    112e:	f8 94       	cli
    1130:	de bf       	out	0x3e, r29	; 62
    1132:	0f be       	out	0x3f, r0	; 63
    1134:	cd bf       	out	0x3d, r28	; 61

		/* Set the Call back function pointer in the ICU driver */


		SET_BIT(PORTA,PA0);
    1136:	ab e3       	ldi	r26, 0x3B	; 59
    1138:	b0 e0       	ldi	r27, 0x00	; 0
    113a:	eb e3       	ldi	r30, 0x3B	; 59
    113c:	f0 e0       	ldi	r31, 0x00	; 0
    113e:	80 81       	ld	r24, Z
    1140:	81 60       	ori	r24, 0x01	; 1
    1142:	8c 93       	st	X, r24
    1144:	80 e0       	ldi	r24, 0x00	; 0
    1146:	90 e0       	ldi	r25, 0x00	; 0
    1148:	aa ef       	ldi	r26, 0xFA	; 250
    114a:	b3 e4       	ldi	r27, 0x43	; 67
    114c:	8b 87       	std	Y+11, r24	; 0x0b
    114e:	9c 87       	std	Y+12, r25	; 0x0c
    1150:	ad 87       	std	Y+13, r26	; 0x0d
    1152:	be 87       	std	Y+14, r27	; 0x0e
 */
void
_delay_ms(double __ms)
{
	uint16_t __ticks;
	double __tmp = ((F_CPU) / 4e3) * __ms;
    1154:	6b 85       	ldd	r22, Y+11	; 0x0b
    1156:	7c 85       	ldd	r23, Y+12	; 0x0c
    1158:	8d 85       	ldd	r24, Y+13	; 0x0d
    115a:	9e 85       	ldd	r25, Y+14	; 0x0e
    115c:	20 e0       	ldi	r18, 0x00	; 0
    115e:	30 e0       	ldi	r19, 0x00	; 0
    1160:	4a e7       	ldi	r20, 0x7A	; 122
    1162:	55 e4       	ldi	r21, 0x45	; 69
    1164:	0e 94 3d 02 	call	0x47a	; 0x47a <__mulsf3>
    1168:	dc 01       	movw	r26, r24
    116a:	cb 01       	movw	r24, r22
    116c:	8f 83       	std	Y+7, r24	; 0x07
    116e:	98 87       	std	Y+8, r25	; 0x08
    1170:	a9 87       	std	Y+9, r26	; 0x09
    1172:	ba 87       	std	Y+10, r27	; 0x0a
	if (__tmp < 1.0)
    1174:	6f 81       	ldd	r22, Y+7	; 0x07
    1176:	78 85       	ldd	r23, Y+8	; 0x08
    1178:	89 85       	ldd	r24, Y+9	; 0x09
    117a:	9a 85       	ldd	r25, Y+10	; 0x0a
    117c:	20 e0       	ldi	r18, 0x00	; 0
    117e:	30 e0       	ldi	r19, 0x00	; 0
    1180:	40 e8       	ldi	r20, 0x80	; 128
    1182:	5f e3       	ldi	r21, 0x3F	; 63
    1184:	0e 94 43 04 	call	0x886	; 0x886 <__ltsf2>
    1188:	88 23       	and	r24, r24
    118a:	2c f4       	brge	.+10     	; 0x1196 <startEngine+0x84>
		__ticks = 1;
    118c:	81 e0       	ldi	r24, 0x01	; 1
    118e:	90 e0       	ldi	r25, 0x00	; 0
    1190:	9e 83       	std	Y+6, r25	; 0x06
    1192:	8d 83       	std	Y+5, r24	; 0x05
    1194:	3f c0       	rjmp	.+126    	; 0x1214 <startEngine+0x102>
	else if (__tmp > 65535)
    1196:	6f 81       	ldd	r22, Y+7	; 0x07
    1198:	78 85       	ldd	r23, Y+8	; 0x08
    119a:	89 85       	ldd	r24, Y+9	; 0x09
    119c:	9a 85       	ldd	r25, Y+10	; 0x0a
    119e:	20 e0       	ldi	r18, 0x00	; 0
    11a0:	3f ef       	ldi	r19, 0xFF	; 255
    11a2:	4f e7       	ldi	r20, 0x7F	; 127
    11a4:	57 e4       	ldi	r21, 0x47	; 71
    11a6:	0e 94 e3 03 	call	0x7c6	; 0x7c6 <__gtsf2>
    11aa:	18 16       	cp	r1, r24
    11ac:	4c f5       	brge	.+82     	; 0x1200 <startEngine+0xee>
	{
		//	__ticks = requested delay in 1/10 ms
		__ticks = (uint16_t) (__ms * 10.0);
    11ae:	6b 85       	ldd	r22, Y+11	; 0x0b
    11b0:	7c 85       	ldd	r23, Y+12	; 0x0c
    11b2:	8d 85       	ldd	r24, Y+13	; 0x0d
    11b4:	9e 85       	ldd	r25, Y+14	; 0x0e
    11b6:	20 e0       	ldi	r18, 0x00	; 0
    11b8:	30 e0       	ldi	r19, 0x00	; 0
    11ba:	40 e2       	ldi	r20, 0x20	; 32
    11bc:	51 e4       	ldi	r21, 0x41	; 65
    11be:	0e 94 3d 02 	call	0x47a	; 0x47a <__mulsf3>
    11c2:	dc 01       	movw	r26, r24
    11c4:	cb 01       	movw	r24, r22
    11c6:	bc 01       	movw	r22, r24
    11c8:	cd 01       	movw	r24, r26
    11ca:	0e 94 67 00 	call	0xce	; 0xce <__fixunssfsi>
    11ce:	dc 01       	movw	r26, r24
    11d0:	cb 01       	movw	r24, r22
    11d2:	9e 83       	std	Y+6, r25	; 0x06
    11d4:	8d 83       	std	Y+5, r24	; 0x05
    11d6:	0f c0       	rjmp	.+30     	; 0x11f6 <startEngine+0xe4>
    11d8:	80 e9       	ldi	r24, 0x90	; 144
    11da:	91 e0       	ldi	r25, 0x01	; 1
    11dc:	9c 83       	std	Y+4, r25	; 0x04
    11de:	8b 83       	std	Y+3, r24	; 0x03
    milliseconds can be achieved.
 */
void
_delay_loop_2(uint16_t __count)
{
	__asm__ volatile (
    11e0:	8b 81       	ldd	r24, Y+3	; 0x03
    11e2:	9c 81       	ldd	r25, Y+4	; 0x04
    11e4:	01 97       	sbiw	r24, 0x01	; 1
    11e6:	f1 f7       	brne	.-4      	; 0x11e4 <startEngine+0xd2>
    11e8:	9c 83       	std	Y+4, r25	; 0x04
    11ea:	8b 83       	std	Y+3, r24	; 0x03
		while(__ticks)
		{
			// wait 1/10 ms
			_delay_loop_2(((F_CPU) / 4e3) / 10);
			__ticks --;
    11ec:	8d 81       	ldd	r24, Y+5	; 0x05
    11ee:	9e 81       	ldd	r25, Y+6	; 0x06
    11f0:	01 97       	sbiw	r24, 0x01	; 1
    11f2:	9e 83       	std	Y+6, r25	; 0x06
    11f4:	8d 83       	std	Y+5, r24	; 0x05
		__ticks = 1;
	else if (__tmp > 65535)
	{
		//	__ticks = requested delay in 1/10 ms
		__ticks = (uint16_t) (__ms * 10.0);
		while(__ticks)
    11f6:	8d 81       	ldd	r24, Y+5	; 0x05
    11f8:	9e 81       	ldd	r25, Y+6	; 0x06
    11fa:	00 97       	sbiw	r24, 0x00	; 0
    11fc:	69 f7       	brne	.-38     	; 0x11d8 <startEngine+0xc6>
    11fe:	14 c0       	rjmp	.+40     	; 0x1228 <startEngine+0x116>
			__ticks --;
		}
		return;
	}
	else
		__ticks = (uint16_t)__tmp;
    1200:	6f 81       	ldd	r22, Y+7	; 0x07
    1202:	78 85       	ldd	r23, Y+8	; 0x08
    1204:	89 85       	ldd	r24, Y+9	; 0x09
    1206:	9a 85       	ldd	r25, Y+10	; 0x0a
    1208:	0e 94 67 00 	call	0xce	; 0xce <__fixunssfsi>
    120c:	dc 01       	movw	r26, r24
    120e:	cb 01       	movw	r24, r22
    1210:	9e 83       	std	Y+6, r25	; 0x06
    1212:	8d 83       	std	Y+5, r24	; 0x05
    1214:	8d 81       	ldd	r24, Y+5	; 0x05
    1216:	9e 81       	ldd	r25, Y+6	; 0x06
    1218:	9a 83       	std	Y+2, r25	; 0x02
    121a:	89 83       	std	Y+1, r24	; 0x01
    121c:	89 81       	ldd	r24, Y+1	; 0x01
    121e:	9a 81       	ldd	r25, Y+2	; 0x02
    1220:	01 97       	sbiw	r24, 0x01	; 1
    1222:	f1 f7       	brne	.-4      	; 0x1220 <startEngine+0x10e>
    1224:	9a 83       	std	Y+2, r25	; 0x02
    1226:	89 83       	std	Y+1, r24	; 0x01
		_delay_ms(500);
		CLEAR_BIT(PORTA,PA0);
    1228:	ab e3       	ldi	r26, 0x3B	; 59
    122a:	b0 e0       	ldi	r27, 0x00	; 0
    122c:	eb e3       	ldi	r30, 0x3B	; 59
    122e:	f0 e0       	ldi	r31, 0x00	; 0
    1230:	80 81       	ld	r24, Z
    1232:	8e 7f       	andi	r24, 0xFE	; 254
    1234:	8c 93       	st	X, r24
    1236:	50 c0       	rjmp	.+160    	; 0x12d8 <startEngine+0x1c6>

		while(  g_period < 50.00 )
		{

				SET_BIT(PORTA,PA1);
    1238:	ab e3       	ldi	r26, 0x3B	; 59
    123a:	b0 e0       	ldi	r27, 0x00	; 0
    123c:	eb e3       	ldi	r30, 0x3B	; 59
    123e:	f0 e0       	ldi	r31, 0x00	; 0
    1240:	80 81       	ld	r24, Z
    1242:	82 60       	ori	r24, 0x02	; 2
    1244:	8c 93       	st	X, r24
				g_edgeCount = 0;
    1246:	10 92 0f 02 	sts	0x020F, r1
				/* calculate the period */
				g_period = (((float32) (g_timeHigh)) / ((float32)(g_timePeriod)+(float32)(g_timeHigh))) * 100.00;
    124a:	80 91 10 02 	lds	r24, 0x0210
    124e:	90 91 11 02 	lds	r25, 0x0211
    1252:	cc 01       	movw	r24, r24
    1254:	a0 e0       	ldi	r26, 0x00	; 0
    1256:	b0 e0       	ldi	r27, 0x00	; 0
    1258:	bc 01       	movw	r22, r24
    125a:	cd 01       	movw	r24, r26
    125c:	0e 94 c7 04 	call	0x98e	; 0x98e <__floatunsisf>
    1260:	5b 01       	movw	r10, r22
    1262:	6c 01       	movw	r12, r24
    1264:	80 91 12 02 	lds	r24, 0x0212
    1268:	90 91 13 02 	lds	r25, 0x0213
    126c:	cc 01       	movw	r24, r24
    126e:	a0 e0       	ldi	r26, 0x00	; 0
    1270:	b0 e0       	ldi	r27, 0x00	; 0
    1272:	bc 01       	movw	r22, r24
    1274:	cd 01       	movw	r24, r26
    1276:	0e 94 c7 04 	call	0x98e	; 0x98e <__floatunsisf>
    127a:	7b 01       	movw	r14, r22
    127c:	8c 01       	movw	r16, r24
    127e:	80 91 10 02 	lds	r24, 0x0210
    1282:	90 91 11 02 	lds	r25, 0x0211
    1286:	cc 01       	movw	r24, r24
    1288:	a0 e0       	ldi	r26, 0x00	; 0
    128a:	b0 e0       	ldi	r27, 0x00	; 0
    128c:	bc 01       	movw	r22, r24
    128e:	cd 01       	movw	r24, r26
    1290:	0e 94 c7 04 	call	0x98e	; 0x98e <__floatunsisf>
    1294:	9b 01       	movw	r18, r22
    1296:	ac 01       	movw	r20, r24
    1298:	c8 01       	movw	r24, r16
    129a:	b7 01       	movw	r22, r14
    129c:	0e 94 10 02 	call	0x420	; 0x420 <__addsf3>
    12a0:	dc 01       	movw	r26, r24
    12a2:	cb 01       	movw	r24, r22
    12a4:	9c 01       	movw	r18, r24
    12a6:	ad 01       	movw	r20, r26
    12a8:	c6 01       	movw	r24, r12
    12aa:	b5 01       	movw	r22, r10
    12ac:	0e 94 37 03 	call	0x66e	; 0x66e <__divsf3>
    12b0:	dc 01       	movw	r26, r24
    12b2:	cb 01       	movw	r24, r22
    12b4:	bc 01       	movw	r22, r24
    12b6:	cd 01       	movw	r24, r26
    12b8:	20 e0       	ldi	r18, 0x00	; 0
    12ba:	30 e0       	ldi	r19, 0x00	; 0
    12bc:	48 ec       	ldi	r20, 0xC8	; 200
    12be:	52 e4       	ldi	r21, 0x42	; 66
    12c0:	0e 94 3d 02 	call	0x47a	; 0x47a <__mulsf3>
    12c4:	dc 01       	movw	r26, r24
    12c6:	cb 01       	movw	r24, r22
    12c8:	80 93 16 02 	sts	0x0216, r24
    12cc:	90 93 17 02 	sts	0x0217, r25
    12d0:	a0 93 18 02 	sts	0x0218, r26
    12d4:	b0 93 19 02 	sts	0x0219, r27

		SET_BIT(PORTA,PA0);
		_delay_ms(500);
		CLEAR_BIT(PORTA,PA0);

		while(  g_period < 50.00 )
    12d8:	80 91 16 02 	lds	r24, 0x0216
    12dc:	90 91 17 02 	lds	r25, 0x0217
    12e0:	a0 91 18 02 	lds	r26, 0x0218
    12e4:	b0 91 19 02 	lds	r27, 0x0219
    12e8:	bc 01       	movw	r22, r24
    12ea:	cd 01       	movw	r24, r26
    12ec:	20 e0       	ldi	r18, 0x00	; 0
    12ee:	30 e0       	ldi	r19, 0x00	; 0
    12f0:	48 e4       	ldi	r20, 0x48	; 72
    12f2:	52 e4       	ldi	r21, 0x42	; 66
    12f4:	0e 94 43 04 	call	0x886	; 0x886 <__ltsf2>
    12f8:	88 23       	and	r24, r24
    12fa:	0c f4       	brge	.+2      	; 0x12fe <startEngine+0x1ec>
    12fc:	9d cf       	rjmp	.-198    	; 0x1238 <startEngine+0x126>
				g_edgeCount = 0;
				/* calculate the period */
				g_period = (((float32) (g_timeHigh)) / ((float32)(g_timePeriod)+(float32)(g_timeHigh))) * 100.00;

		}
}
    12fe:	2e 96       	adiw	r28, 0x0e	; 14
    1300:	0f b6       	in	r0, 0x3f	; 63
    1302:	f8 94       	cli
    1304:	de bf       	out	0x3e, r29	; 62
    1306:	0f be       	out	0x3f, r0	; 63
    1308:	cd bf       	out	0x3d, r28	; 61
    130a:	cf 91       	pop	r28
    130c:	df 91       	pop	r29
    130e:	1f 91       	pop	r17
    1310:	0f 91       	pop	r16
    1312:	ff 90       	pop	r15
    1314:	ef 90       	pop	r14
    1316:	df 90       	pop	r13
    1318:	cf 90       	pop	r12
    131a:	bf 90       	pop	r11
    131c:	af 90       	pop	r10
    131e:	08 95       	ret

00001320 <APP_edgeProcessing>:

void APP_edgeProcessing(void)
{
    1320:	df 93       	push	r29
    1322:	cf 93       	push	r28
    1324:	00 d0       	rcall	.+0      	; 0x1326 <APP_edgeProcessing+0x6>
    1326:	cd b7       	in	r28, 0x3d	; 61
    1328:	de b7       	in	r29, 0x3e	; 62
	g_edgeCount++;
    132a:	80 91 0f 02 	lds	r24, 0x020F
    132e:	8f 5f       	subi	r24, 0xFF	; 255
    1330:	80 93 0f 02 	sts	0x020F, r24
	switch (g_edgeCount)
    1334:	80 91 0f 02 	lds	r24, 0x020F
    1338:	28 2f       	mov	r18, r24
    133a:	30 e0       	ldi	r19, 0x00	; 0
    133c:	3a 83       	std	Y+2, r19	; 0x02
    133e:	29 83       	std	Y+1, r18	; 0x01
    1340:	89 81       	ldd	r24, Y+1	; 0x01
    1342:	9a 81       	ldd	r25, Y+2	; 0x02
    1344:	82 30       	cpi	r24, 0x02	; 2
    1346:	91 05       	cpc	r25, r1
    1348:	e1 f0       	breq	.+56     	; 0x1382 <APP_edgeProcessing+0x62>
    134a:	29 81       	ldd	r18, Y+1	; 0x01
    134c:	3a 81       	ldd	r19, Y+2	; 0x02
    134e:	23 30       	cpi	r18, 0x03	; 3
    1350:	31 05       	cpc	r19, r1
    1352:	34 f4       	brge	.+12     	; 0x1360 <APP_edgeProcessing+0x40>
    1354:	89 81       	ldd	r24, Y+1	; 0x01
    1356:	9a 81       	ldd	r25, Y+2	; 0x02
    1358:	81 30       	cpi	r24, 0x01	; 1
    135a:	91 05       	cpc	r25, r1
    135c:	61 f0       	breq	.+24     	; 0x1376 <APP_edgeProcessing+0x56>
    135e:	36 c0       	rjmp	.+108    	; 0x13cc <APP_edgeProcessing+0xac>
    1360:	29 81       	ldd	r18, Y+1	; 0x01
    1362:	3a 81       	ldd	r19, Y+2	; 0x02
    1364:	23 30       	cpi	r18, 0x03	; 3
    1366:	31 05       	cpc	r19, r1
    1368:	c1 f0       	breq	.+48     	; 0x139a <APP_edgeProcessing+0x7a>
    136a:	89 81       	ldd	r24, Y+1	; 0x01
    136c:	9a 81       	ldd	r25, Y+2	; 0x02
    136e:	84 30       	cpi	r24, 0x04	; 4
    1370:	91 05       	cpc	r25, r1
    1372:	f9 f0       	breq	.+62     	; 0x13b2 <APP_edgeProcessing+0x92>
    1374:	2b c0       	rjmp	.+86     	; 0x13cc <APP_edgeProcessing+0xac>
	{
	case 1:
		/*
		 * Clear the timer counter register to start measurements from the
		 * first detected rising edge */
		ICU3_clearTimerValue();
    1376:	0e 94 a3 0b 	call	0x1746	; 0x1746 <ICU3_clearTimerValue>
		/* Detect falling edge */
		ICU3_setEdgeDetectionType(FALLING);
    137a:	80 e0       	ldi	r24, 0x00	; 0
    137c:	0e 94 79 0b 	call	0x16f2	; 0x16f2 <ICU3_setEdgeDetectionType>
    1380:	25 c0       	rjmp	.+74     	; 0x13cc <APP_edgeProcessing+0xac>
		break;

	case 2:
		/* Store the High time value */
		g_timeHigh = ICU3_getInputCaptureValue();
    1382:	0e 94 98 0b 	call	0x1730	; 0x1730 <ICU3_getInputCaptureValue>
    1386:	90 93 11 02 	sts	0x0211, r25
    138a:	80 93 10 02 	sts	0x0210, r24
		/* Detect rising edge */
		ICU3_setEdgeDetectionType(RISING);
    138e:	81 e0       	ldi	r24, 0x01	; 1
    1390:	0e 94 79 0b 	call	0x16f2	; 0x16f2 <ICU3_setEdgeDetectionType>
		ICU3_clearTimerValue();
    1394:	0e 94 a3 0b 	call	0x1746	; 0x1746 <ICU3_clearTimerValue>
    1398:	19 c0       	rjmp	.+50     	; 0x13cc <APP_edgeProcessing+0xac>

		break;

	case 3:
		/* Store the Period time value */
		g_timePeriod = ICU3_getInputCaptureValue();
    139a:	0e 94 98 0b 	call	0x1730	; 0x1730 <ICU3_getInputCaptureValue>
    139e:	90 93 13 02 	sts	0x0213, r25
    13a2:	80 93 12 02 	sts	0x0212, r24
		/* Detect falling edge */
		ICU3_setEdgeDetectionType(FALLING);
    13a6:	80 e0       	ldi	r24, 0x00	; 0
    13a8:	0e 94 79 0b 	call	0x16f2	; 0x16f2 <ICU3_setEdgeDetectionType>
		ICU3_clearTimerValue();
    13ac:	0e 94 a3 0b 	call	0x1746	; 0x1746 <ICU3_clearTimerValue>
    13b0:	0d c0       	rjmp	.+26     	; 0x13cc <APP_edgeProcessing+0xac>
	    break;

	case 4:
		/* Store the Period time value + High time value */
		g_timePeriodPlusHigh = ICU3_getInputCaptureValue();
    13b2:	0e 94 98 0b 	call	0x1730	; 0x1730 <ICU3_getInputCaptureValue>
    13b6:	90 93 15 02 	sts	0x0215, r25
    13ba:	80 93 14 02 	sts	0x0214, r24
		/* Clear the timer counter register to start measurements again */
		/* Detect rising edge */
		ICU3_setEdgeDetectionType(RISING);
    13be:	81 e0       	ldi	r24, 0x01	; 1
    13c0:	0e 94 79 0b 	call	0x16f2	; 0x16f2 <ICU3_setEdgeDetectionType>
		ICU3_clearTimerValue();
    13c4:	0e 94 a3 0b 	call	0x1746	; 0x1746 <ICU3_clearTimerValue>
		g_edgeCount = 0;
    13c8:	10 92 0f 02 	sts	0x020F, r1
		break;

	default:
		break;
	}
}
    13cc:	0f 90       	pop	r0
    13ce:	0f 90       	pop	r0
    13d0:	cf 91       	pop	r28
    13d2:	df 91       	pop	r29
    13d4:	08 95       	ret

000013d6 <revCounter_TIMER2>:

void revCounter_TIMER2 (void)
{
    13d6:	df 93       	push	r29
    13d8:	cf 93       	push	r28
    13da:	cd b7       	in	r28, 0x3d	; 61
    13dc:	de b7       	in	r29, 0x3e	; 62
	rev++;
    13de:	80 91 0e 02 	lds	r24, 0x020E
    13e2:	8f 5f       	subi	r24, 0xFF	; 255
    13e4:	80 93 0e 02 	sts	0x020E, r24
	if (rev == 2)
    13e8:	80 91 0e 02 	lds	r24, 0x020E
    13ec:	82 30       	cpi	r24, 0x02	; 2
    13ee:	11 f4       	brne	.+4      	; 0x13f4 <revCounter_TIMER2+0x1e>
		rev = 0;
    13f0:	10 92 0e 02 	sts	0x020E, r1
}
    13f4:	cf 91       	pop	r28
    13f6:	df 91       	pop	r29
    13f8:	08 95       	ret

000013fa <__vector_11>:
/*******************************************************************************
 *                       Interrupt Service Routines                            *
 *******************************************************************************/

ISR(TIMER1_CAPT_vect)
{
    13fa:	1f 92       	push	r1
    13fc:	0f 92       	push	r0
    13fe:	0f b6       	in	r0, 0x3f	; 63
    1400:	0f 92       	push	r0
    1402:	00 90 5b 00 	lds	r0, 0x005B
    1406:	0f 92       	push	r0
    1408:	11 24       	eor	r1, r1
    140a:	2f 93       	push	r18
    140c:	3f 93       	push	r19
    140e:	4f 93       	push	r20
    1410:	5f 93       	push	r21
    1412:	6f 93       	push	r22
    1414:	7f 93       	push	r23
    1416:	8f 93       	push	r24
    1418:	9f 93       	push	r25
    141a:	af 93       	push	r26
    141c:	bf 93       	push	r27
    141e:	ef 93       	push	r30
    1420:	ff 93       	push	r31
    1422:	df 93       	push	r29
    1424:	cf 93       	push	r28
    1426:	cd b7       	in	r28, 0x3d	; 61
    1428:	de b7       	in	r29, 0x3e	; 62
	if(g_ICU1_callBackPtr != NULL_PTR)
    142a:	80 91 1a 02 	lds	r24, 0x021A
    142e:	90 91 1b 02 	lds	r25, 0x021B
    1432:	00 97       	sbiw	r24, 0x00	; 0
    1434:	29 f0       	breq	.+10     	; 0x1440 <__vector_11+0x46>
	{
		/* Call the Call Back function in the application after the edge is detected */
		(*g_ICU1_callBackPtr)(); /* another method to call the function using pointer to function g_callBackPtr(); */
    1436:	e0 91 1a 02 	lds	r30, 0x021A
    143a:	f0 91 1b 02 	lds	r31, 0x021B
    143e:	09 95       	icall
	}
}
    1440:	cf 91       	pop	r28
    1442:	df 91       	pop	r29
    1444:	ff 91       	pop	r31
    1446:	ef 91       	pop	r30
    1448:	bf 91       	pop	r27
    144a:	af 91       	pop	r26
    144c:	9f 91       	pop	r25
    144e:	8f 91       	pop	r24
    1450:	7f 91       	pop	r23
    1452:	6f 91       	pop	r22
    1454:	5f 91       	pop	r21
    1456:	4f 91       	pop	r20
    1458:	3f 91       	pop	r19
    145a:	2f 91       	pop	r18
    145c:	0f 90       	pop	r0
    145e:	00 92 5b 00 	sts	0x005B, r0
    1462:	0f 90       	pop	r0
    1464:	0f be       	out	0x3f, r0	; 63
    1466:	0f 90       	pop	r0
    1468:	1f 90       	pop	r1
    146a:	18 95       	reti

0000146c <__vector_25>:

ISR(TIMER3_CAPT_vect)
{
    146c:	1f 92       	push	r1
    146e:	0f 92       	push	r0
    1470:	0f b6       	in	r0, 0x3f	; 63
    1472:	0f 92       	push	r0
    1474:	00 90 5b 00 	lds	r0, 0x005B
    1478:	0f 92       	push	r0
    147a:	11 24       	eor	r1, r1
    147c:	2f 93       	push	r18
    147e:	3f 93       	push	r19
    1480:	4f 93       	push	r20
    1482:	5f 93       	push	r21
    1484:	6f 93       	push	r22
    1486:	7f 93       	push	r23
    1488:	8f 93       	push	r24
    148a:	9f 93       	push	r25
    148c:	af 93       	push	r26
    148e:	bf 93       	push	r27
    1490:	ef 93       	push	r30
    1492:	ff 93       	push	r31
    1494:	df 93       	push	r29
    1496:	cf 93       	push	r28
    1498:	cd b7       	in	r28, 0x3d	; 61
    149a:	de b7       	in	r29, 0x3e	; 62
	if(g_ICU3_callBackPtr != NULL_PTR)
    149c:	80 91 1c 02 	lds	r24, 0x021C
    14a0:	90 91 1d 02 	lds	r25, 0x021D
    14a4:	00 97       	sbiw	r24, 0x00	; 0
    14a6:	29 f0       	breq	.+10     	; 0x14b2 <__vector_25+0x46>
	{
		/* Call the Call Back function in the application after the edge is detected */
		(*g_ICU3_callBackPtr)(); /* another method to call the function using pointer to function g_callBackPtr(); */
    14a8:	e0 91 1c 02 	lds	r30, 0x021C
    14ac:	f0 91 1d 02 	lds	r31, 0x021D
    14b0:	09 95       	icall
	}
}
    14b2:	cf 91       	pop	r28
    14b4:	df 91       	pop	r29
    14b6:	ff 91       	pop	r31
    14b8:	ef 91       	pop	r30
    14ba:	bf 91       	pop	r27
    14bc:	af 91       	pop	r26
    14be:	9f 91       	pop	r25
    14c0:	8f 91       	pop	r24
    14c2:	7f 91       	pop	r23
    14c4:	6f 91       	pop	r22
    14c6:	5f 91       	pop	r21
    14c8:	4f 91       	pop	r20
    14ca:	3f 91       	pop	r19
    14cc:	2f 91       	pop	r18
    14ce:	0f 90       	pop	r0
    14d0:	00 92 5b 00 	sts	0x005B, r0
    14d4:	0f 90       	pop	r0
    14d6:	0f be       	out	0x3f, r0	; 63
    14d8:	0f 90       	pop	r0
    14da:	1f 90       	pop	r1
    14dc:	18 95       	reti

000014de <ICU1_init>:
 * 	2. Set the required edge detection.
 * 	3. Enable the Input Capture Interrupt.
 * 	4. Initialize Timer1 Registers
 */
void ICU1_init(const ICU_ConfigType * Config_Ptr)
{
    14de:	df 93       	push	r29
    14e0:	cf 93       	push	r28
    14e2:	00 d0       	rcall	.+0      	; 0x14e4 <ICU1_init+0x6>
    14e4:	cd b7       	in	r28, 0x3d	; 61
    14e6:	de b7       	in	r29, 0x3e	; 62
    14e8:	9a 83       	std	Y+2, r25	; 0x02
    14ea:	89 83       	std	Y+1, r24	; 0x01
	/* Configure ICP3/PE3 as i/p pin */
	CLEAR_BIT(DDRE,PD4);
    14ec:	a2 e2       	ldi	r26, 0x22	; 34
    14ee:	b0 e0       	ldi	r27, 0x00	; 0
    14f0:	e2 e2       	ldi	r30, 0x22	; 34
    14f2:	f0 e0       	ldi	r31, 0x00	; 0
    14f4:	80 81       	ld	r24, Z
    14f6:	8f 7e       	andi	r24, 0xEF	; 239
    14f8:	8c 93       	st	X, r24
	//SET_BIT(PORTE,PD4);

	/* Timer1 always operates in Normal Mode */
	TCCR1C = (1<<FOC1A) | (1<<FOC1B) | (1<<FOC1C);
    14fa:	ea e7       	ldi	r30, 0x7A	; 122
    14fc:	f0 e0       	ldi	r31, 0x00	; 0
    14fe:	80 ee       	ldi	r24, 0xE0	; 224
    1500:	80 83       	st	Z, r24

	/*
	 * insert the required clock value in the first three bits (CS30, CS31 and CS32)
	 * of TCCR1B Register
	 */
	TCCR1B = (TCCR1B & 0xF8) | (Config_Ptr->clock);
    1502:	ae e4       	ldi	r26, 0x4E	; 78
    1504:	b0 e0       	ldi	r27, 0x00	; 0
    1506:	ee e4       	ldi	r30, 0x4E	; 78
    1508:	f0 e0       	ldi	r31, 0x00	; 0
    150a:	80 81       	ld	r24, Z
    150c:	98 2f       	mov	r25, r24
    150e:	98 7f       	andi	r25, 0xF8	; 248
    1510:	e9 81       	ldd	r30, Y+1	; 0x01
    1512:	fa 81       	ldd	r31, Y+2	; 0x02
    1514:	80 81       	ld	r24, Z
    1516:	89 2b       	or	r24, r25
    1518:	8c 93       	st	X, r24
	/*
     * insert the required edge type in ICES3 bit in TCCR3B Register
	 */
	TCCR1B = (TCCR1B & 0xBF) | ((Config_Ptr->edge)<<6);
    151a:	ae e4       	ldi	r26, 0x4E	; 78
    151c:	b0 e0       	ldi	r27, 0x00	; 0
    151e:	ee e4       	ldi	r30, 0x4E	; 78
    1520:	f0 e0       	ldi	r31, 0x00	; 0
    1522:	80 81       	ld	r24, Z
    1524:	28 2f       	mov	r18, r24
    1526:	2f 7b       	andi	r18, 0xBF	; 191
    1528:	e9 81       	ldd	r30, Y+1	; 0x01
    152a:	fa 81       	ldd	r31, Y+2	; 0x02
    152c:	81 81       	ldd	r24, Z+1	; 0x01
    152e:	88 2f       	mov	r24, r24
    1530:	90 e0       	ldi	r25, 0x00	; 0
    1532:	00 24       	eor	r0, r0
    1534:	96 95       	lsr	r25
    1536:	87 95       	ror	r24
    1538:	07 94       	ror	r0
    153a:	96 95       	lsr	r25
    153c:	87 95       	ror	r24
    153e:	07 94       	ror	r0
    1540:	98 2f       	mov	r25, r24
    1542:	80 2d       	mov	r24, r0
    1544:	82 2b       	or	r24, r18
    1546:	8c 93       	st	X, r24

	/* Initial Value for Timer1 */
	TCNT1 = 0;
    1548:	ec e4       	ldi	r30, 0x4C	; 76
    154a:	f0 e0       	ldi	r31, 0x00	; 0
    154c:	11 82       	std	Z+1, r1	; 0x01
    154e:	10 82       	st	Z, r1

	/* Initial Value for the input capture register */
	ICR1 = 0;
    1550:	e6 e4       	ldi	r30, 0x46	; 70
    1552:	f0 e0       	ldi	r31, 0x00	; 0
    1554:	11 82       	std	Z+1, r1	; 0x01
    1556:	10 82       	st	Z, r1

	/* Enable the Input Capture interrupt to generate an interrupt when edge is detected on ICP1/PD6 pin */
	TIMSK |= (1<<TICIE1);
    1558:	a7 e5       	ldi	r26, 0x57	; 87
    155a:	b0 e0       	ldi	r27, 0x00	; 0
    155c:	e7 e5       	ldi	r30, 0x57	; 87
    155e:	f0 e0       	ldi	r31, 0x00	; 0
    1560:	80 81       	ld	r24, Z
    1562:	80 62       	ori	r24, 0x20	; 32
    1564:	8c 93       	st	X, r24
}
    1566:	0f 90       	pop	r0
    1568:	0f 90       	pop	r0
    156a:	cf 91       	pop	r28
    156c:	df 91       	pop	r29
    156e:	08 95       	ret

00001570 <ICU1_setCallBack>:

/*
 * Description: Function to set the Call Back function address.
 */
void ICU1_setCallBack(void(*a_ptr)(void))
{
    1570:	df 93       	push	r29
    1572:	cf 93       	push	r28
    1574:	00 d0       	rcall	.+0      	; 0x1576 <ICU1_setCallBack+0x6>
    1576:	cd b7       	in	r28, 0x3d	; 61
    1578:	de b7       	in	r29, 0x3e	; 62
    157a:	9a 83       	std	Y+2, r25	; 0x02
    157c:	89 83       	std	Y+1, r24	; 0x01
	/* Save the address of the Call back function in a global variable */
	g_ICU1_callBackPtr = a_ptr;
    157e:	89 81       	ldd	r24, Y+1	; 0x01
    1580:	9a 81       	ldd	r25, Y+2	; 0x02
    1582:	90 93 1b 02 	sts	0x021B, r25
    1586:	80 93 1a 02 	sts	0x021A, r24
}
    158a:	0f 90       	pop	r0
    158c:	0f 90       	pop	r0
    158e:	cf 91       	pop	r28
    1590:	df 91       	pop	r29
    1592:	08 95       	ret

00001594 <ICU1_setEdgeDetectionType>:

/*
 * Description: Function to set the required edge detection.
 */
void ICU1_setEdgeDetectionType( Icu_EdgeType a_edgeType)
{
    1594:	df 93       	push	r29
    1596:	cf 93       	push	r28
    1598:	0f 92       	push	r0
    159a:	cd b7       	in	r28, 0x3d	; 61
    159c:	de b7       	in	r29, 0x3e	; 62
    159e:	89 83       	std	Y+1, r24	; 0x01
	/*
	 * insert the required edge type in ICES1 bit in TCCR1B Register
	 */
	TCCR1B = (TCCR1B & 0xBF) | (a_edgeType<<6);
    15a0:	ae e4       	ldi	r26, 0x4E	; 78
    15a2:	b0 e0       	ldi	r27, 0x00	; 0
    15a4:	ee e4       	ldi	r30, 0x4E	; 78
    15a6:	f0 e0       	ldi	r31, 0x00	; 0
    15a8:	80 81       	ld	r24, Z
    15aa:	28 2f       	mov	r18, r24
    15ac:	2f 7b       	andi	r18, 0xBF	; 191
    15ae:	89 81       	ldd	r24, Y+1	; 0x01
    15b0:	88 2f       	mov	r24, r24
    15b2:	90 e0       	ldi	r25, 0x00	; 0
    15b4:	00 24       	eor	r0, r0
    15b6:	96 95       	lsr	r25
    15b8:	87 95       	ror	r24
    15ba:	07 94       	ror	r0
    15bc:	96 95       	lsr	r25
    15be:	87 95       	ror	r24
    15c0:	07 94       	ror	r0
    15c2:	98 2f       	mov	r25, r24
    15c4:	80 2d       	mov	r24, r0
    15c6:	82 2b       	or	r24, r18
    15c8:	8c 93       	st	X, r24
}
    15ca:	0f 90       	pop	r0
    15cc:	cf 91       	pop	r28
    15ce:	df 91       	pop	r29
    15d0:	08 95       	ret

000015d2 <ICU1_getInputCaptureValue>:
/*
 * Description: Function to get the Timer1 Value when the input is captured
 *              The value stored at Input Capture Register ICR1
 */
uint16 ICU1_getInputCaptureValue(void)
{
    15d2:	df 93       	push	r29
    15d4:	cf 93       	push	r28
    15d6:	cd b7       	in	r28, 0x3d	; 61
    15d8:	de b7       	in	r29, 0x3e	; 62
	return ICR1;
    15da:	e6 e4       	ldi	r30, 0x46	; 70
    15dc:	f0 e0       	ldi	r31, 0x00	; 0
    15de:	80 81       	ld	r24, Z
    15e0:	91 81       	ldd	r25, Z+1	; 0x01
}
    15e2:	cf 91       	pop	r28
    15e4:	df 91       	pop	r29
    15e6:	08 95       	ret

000015e8 <ICU1_clearTimerValue>:

/*
 * Description: Function to clear the Timer1 Value to start count from ZERO
 */
void ICU1_clearTimerValue(void)
{
    15e8:	df 93       	push	r29
    15ea:	cf 93       	push	r28
    15ec:	cd b7       	in	r28, 0x3d	; 61
    15ee:	de b7       	in	r29, 0x3e	; 62
	TCNT1 = 0;
    15f0:	ec e4       	ldi	r30, 0x4C	; 76
    15f2:	f0 e0       	ldi	r31, 0x00	; 0
    15f4:	11 82       	std	Z+1, r1	; 0x01
    15f6:	10 82       	st	Z, r1
}
    15f8:	cf 91       	pop	r28
    15fa:	df 91       	pop	r29
    15fc:	08 95       	ret

000015fe <ICU1_DeInit>:

/*
 * Description: Function to disable the Timer1 to stop the ICU Driver
 */
void ICU1_DeInit(void)
{
    15fe:	df 93       	push	r29
    1600:	cf 93       	push	r28
    1602:	cd b7       	in	r28, 0x3d	; 61
    1604:	de b7       	in	r29, 0x3e	; 62
	/* Clear All Timer1 Registers */
	TCCR1A = 0;
    1606:	ef e4       	ldi	r30, 0x4F	; 79
    1608:	f0 e0       	ldi	r31, 0x00	; 0
    160a:	10 82       	st	Z, r1
	TCCR1B = 0;
    160c:	ee e4       	ldi	r30, 0x4E	; 78
    160e:	f0 e0       	ldi	r31, 0x00	; 0
    1610:	10 82       	st	Z, r1
	TCCR1C = 0;
    1612:	ea e7       	ldi	r30, 0x7A	; 122
    1614:	f0 e0       	ldi	r31, 0x00	; 0
    1616:	10 82       	st	Z, r1
	TCNT1 = 0;
    1618:	ec e4       	ldi	r30, 0x4C	; 76
    161a:	f0 e0       	ldi	r31, 0x00	; 0
    161c:	11 82       	std	Z+1, r1	; 0x01
    161e:	10 82       	st	Z, r1
	ICR1 = 0;
    1620:	e6 e4       	ldi	r30, 0x46	; 70
    1622:	f0 e0       	ldi	r31, 0x00	; 0
    1624:	11 82       	std	Z+1, r1	; 0x01
    1626:	10 82       	st	Z, r1

	/* Disable the Input Capture interrupt */
	ETIMSK &= ~(1<<TICIE1);
    1628:	ad e7       	ldi	r26, 0x7D	; 125
    162a:	b0 e0       	ldi	r27, 0x00	; 0
    162c:	ed e7       	ldi	r30, 0x7D	; 125
    162e:	f0 e0       	ldi	r31, 0x00	; 0
    1630:	80 81       	ld	r24, Z
    1632:	8f 7d       	andi	r24, 0xDF	; 223
    1634:	8c 93       	st	X, r24
}
    1636:	cf 91       	pop	r28
    1638:	df 91       	pop	r29
    163a:	08 95       	ret

0000163c <ICU3_init>:
* 	2. Set the required edge detection.
* 	3. Enable the Input Capture Interrupt.
* 	4. Initialize Timer1 Registers
*/
void ICU3_init(const ICU_ConfigType * Config_Ptr)
{
    163c:	df 93       	push	r29
    163e:	cf 93       	push	r28
    1640:	00 d0       	rcall	.+0      	; 0x1642 <ICU3_init+0x6>
    1642:	cd b7       	in	r28, 0x3d	; 61
    1644:	de b7       	in	r29, 0x3e	; 62
    1646:	9a 83       	std	Y+2, r25	; 0x02
    1648:	89 83       	std	Y+1, r24	; 0x01
	/* Configure ICP3/PE3 as i/p pin */
	CLEAR_BIT(DDRE,PE7);
    164a:	a2 e2       	ldi	r26, 0x22	; 34
    164c:	b0 e0       	ldi	r27, 0x00	; 0
    164e:	e2 e2       	ldi	r30, 0x22	; 34
    1650:	f0 e0       	ldi	r31, 0x00	; 0
    1652:	80 81       	ld	r24, Z
    1654:	8f 77       	andi	r24, 0x7F	; 127
    1656:	8c 93       	st	X, r24
	//SET_BIT(PORTE,PE7);

	/* Timer1 always operates in Normal Mode */
	TCCR3C = (1<<FOC3A) | (1<<FOC3B) | (1<<FOC3C);
    1658:	ec e8       	ldi	r30, 0x8C	; 140
    165a:	f0 e0       	ldi	r31, 0x00	; 0
    165c:	80 ee       	ldi	r24, 0xE0	; 224
    165e:	80 83       	st	Z, r24

	/*
	 * insert the required clock value in the first three bits (CS30, CS31 and CS32)
	 * of TCCR1B Register
	 */
	TCCR3B = (TCCR3B & 0xF8) | (Config_Ptr->clock);
    1660:	aa e8       	ldi	r26, 0x8A	; 138
    1662:	b0 e0       	ldi	r27, 0x00	; 0
    1664:	ea e8       	ldi	r30, 0x8A	; 138
    1666:	f0 e0       	ldi	r31, 0x00	; 0
    1668:	80 81       	ld	r24, Z
    166a:	98 2f       	mov	r25, r24
    166c:	98 7f       	andi	r25, 0xF8	; 248
    166e:	e9 81       	ldd	r30, Y+1	; 0x01
    1670:	fa 81       	ldd	r31, Y+2	; 0x02
    1672:	80 81       	ld	r24, Z
    1674:	89 2b       	or	r24, r25
    1676:	8c 93       	st	X, r24
	/*
    * insert the required edge type in ICES3 bit in TCCR3B Register
	 */
	TCCR3B = (TCCR3B & 0xBF) | ((Config_Ptr->edge)<<6);
    1678:	aa e8       	ldi	r26, 0x8A	; 138
    167a:	b0 e0       	ldi	r27, 0x00	; 0
    167c:	ea e8       	ldi	r30, 0x8A	; 138
    167e:	f0 e0       	ldi	r31, 0x00	; 0
    1680:	80 81       	ld	r24, Z
    1682:	28 2f       	mov	r18, r24
    1684:	2f 7b       	andi	r18, 0xBF	; 191
    1686:	e9 81       	ldd	r30, Y+1	; 0x01
    1688:	fa 81       	ldd	r31, Y+2	; 0x02
    168a:	81 81       	ldd	r24, Z+1	; 0x01
    168c:	88 2f       	mov	r24, r24
    168e:	90 e0       	ldi	r25, 0x00	; 0
    1690:	00 24       	eor	r0, r0
    1692:	96 95       	lsr	r25
    1694:	87 95       	ror	r24
    1696:	07 94       	ror	r0
    1698:	96 95       	lsr	r25
    169a:	87 95       	ror	r24
    169c:	07 94       	ror	r0
    169e:	98 2f       	mov	r25, r24
    16a0:	80 2d       	mov	r24, r0
    16a2:	82 2b       	or	r24, r18
    16a4:	8c 93       	st	X, r24

	/* Initial Value for Timer1 */
	TCNT3 = 0;
    16a6:	e8 e8       	ldi	r30, 0x88	; 136
    16a8:	f0 e0       	ldi	r31, 0x00	; 0
    16aa:	11 82       	std	Z+1, r1	; 0x01
    16ac:	10 82       	st	Z, r1

	/* Initial Value for the input capture register */
	ICR3 = 0;
    16ae:	e0 e8       	ldi	r30, 0x80	; 128
    16b0:	f0 e0       	ldi	r31, 0x00	; 0
    16b2:	11 82       	std	Z+1, r1	; 0x01
    16b4:	10 82       	st	Z, r1

	/* Enable the Input Capture interrupt to generate an interrupt when edge is detected on ICP1/PD6 pin */
	ETIMSK |= (1<<TICIE3);
    16b6:	ad e7       	ldi	r26, 0x7D	; 125
    16b8:	b0 e0       	ldi	r27, 0x00	; 0
    16ba:	ed e7       	ldi	r30, 0x7D	; 125
    16bc:	f0 e0       	ldi	r31, 0x00	; 0
    16be:	80 81       	ld	r24, Z
    16c0:	80 62       	ori	r24, 0x20	; 32
    16c2:	8c 93       	st	X, r24
}
    16c4:	0f 90       	pop	r0
    16c6:	0f 90       	pop	r0
    16c8:	cf 91       	pop	r28
    16ca:	df 91       	pop	r29
    16cc:	08 95       	ret

000016ce <ICU3_setCallBack>:

/*
* Description: Function to set the Call Back function address.
*/
void ICU3_setCallBack(void(*a_ptr)(void))
{
    16ce:	df 93       	push	r29
    16d0:	cf 93       	push	r28
    16d2:	00 d0       	rcall	.+0      	; 0x16d4 <ICU3_setCallBack+0x6>
    16d4:	cd b7       	in	r28, 0x3d	; 61
    16d6:	de b7       	in	r29, 0x3e	; 62
    16d8:	9a 83       	std	Y+2, r25	; 0x02
    16da:	89 83       	std	Y+1, r24	; 0x01
	/* Save the address of the Call back function in a global variable */
	g_ICU3_callBackPtr = a_ptr;
    16dc:	89 81       	ldd	r24, Y+1	; 0x01
    16de:	9a 81       	ldd	r25, Y+2	; 0x02
    16e0:	90 93 1d 02 	sts	0x021D, r25
    16e4:	80 93 1c 02 	sts	0x021C, r24
}
    16e8:	0f 90       	pop	r0
    16ea:	0f 90       	pop	r0
    16ec:	cf 91       	pop	r28
    16ee:	df 91       	pop	r29
    16f0:	08 95       	ret

000016f2 <ICU3_setEdgeDetectionType>:

/*
* Description: Function to set the required edge detection.
*/
void ICU3_setEdgeDetectionType(Icu_EdgeType a_edgeType)
{
    16f2:	df 93       	push	r29
    16f4:	cf 93       	push	r28
    16f6:	0f 92       	push	r0
    16f8:	cd b7       	in	r28, 0x3d	; 61
    16fa:	de b7       	in	r29, 0x3e	; 62
    16fc:	89 83       	std	Y+1, r24	; 0x01
	/*
	 * insert the required edge type in ICES1 bit in TCCR1B Register
	 */
	TCCR3B = (TCCR3B & 0xBF) | (a_edgeType<<6);
    16fe:	aa e8       	ldi	r26, 0x8A	; 138
    1700:	b0 e0       	ldi	r27, 0x00	; 0
    1702:	ea e8       	ldi	r30, 0x8A	; 138
    1704:	f0 e0       	ldi	r31, 0x00	; 0
    1706:	80 81       	ld	r24, Z
    1708:	28 2f       	mov	r18, r24
    170a:	2f 7b       	andi	r18, 0xBF	; 191
    170c:	89 81       	ldd	r24, Y+1	; 0x01
    170e:	88 2f       	mov	r24, r24
    1710:	90 e0       	ldi	r25, 0x00	; 0
    1712:	00 24       	eor	r0, r0
    1714:	96 95       	lsr	r25
    1716:	87 95       	ror	r24
    1718:	07 94       	ror	r0
    171a:	96 95       	lsr	r25
    171c:	87 95       	ror	r24
    171e:	07 94       	ror	r0
    1720:	98 2f       	mov	r25, r24
    1722:	80 2d       	mov	r24, r0
    1724:	82 2b       	or	r24, r18
    1726:	8c 93       	st	X, r24
}
    1728:	0f 90       	pop	r0
    172a:	cf 91       	pop	r28
    172c:	df 91       	pop	r29
    172e:	08 95       	ret

00001730 <ICU3_getInputCaptureValue>:
/*
* Description: Function to get the Timer1 Value when the input is captured
*              The value stored at Input Capture Register ICR1
*/
uint16 ICU3_getInputCaptureValue(void)
{
    1730:	df 93       	push	r29
    1732:	cf 93       	push	r28
    1734:	cd b7       	in	r28, 0x3d	; 61
    1736:	de b7       	in	r29, 0x3e	; 62
	return ICR3;
    1738:	e0 e8       	ldi	r30, 0x80	; 128
    173a:	f0 e0       	ldi	r31, 0x00	; 0
    173c:	80 81       	ld	r24, Z
    173e:	91 81       	ldd	r25, Z+1	; 0x01
}
    1740:	cf 91       	pop	r28
    1742:	df 91       	pop	r29
    1744:	08 95       	ret

00001746 <ICU3_clearTimerValue>:

/*
* Description: Function to clear the Timer1 Value to start count from ZERO
*/
void ICU3_clearTimerValue(void)
{
    1746:	df 93       	push	r29
    1748:	cf 93       	push	r28
    174a:	cd b7       	in	r28, 0x3d	; 61
    174c:	de b7       	in	r29, 0x3e	; 62
	TCNT3 = 0;
    174e:	e8 e8       	ldi	r30, 0x88	; 136
    1750:	f0 e0       	ldi	r31, 0x00	; 0
    1752:	11 82       	std	Z+1, r1	; 0x01
    1754:	10 82       	st	Z, r1
}
    1756:	cf 91       	pop	r28
    1758:	df 91       	pop	r29
    175a:	08 95       	ret

0000175c <ICU3_DeInit>:

/*
* Description: Function to disable the Timer1 to stop the ICU Driver
*/
void ICU3_DeInit(void)
{
    175c:	df 93       	push	r29
    175e:	cf 93       	push	r28
    1760:	cd b7       	in	r28, 0x3d	; 61
    1762:	de b7       	in	r29, 0x3e	; 62
	/* Clear All Timer1 Registers */
	TCCR3A = 0;
    1764:	eb e8       	ldi	r30, 0x8B	; 139
    1766:	f0 e0       	ldi	r31, 0x00	; 0
    1768:	10 82       	st	Z, r1
	TCCR3B = 0;
    176a:	ea e8       	ldi	r30, 0x8A	; 138
    176c:	f0 e0       	ldi	r31, 0x00	; 0
    176e:	10 82       	st	Z, r1
	TCCR3C = 0;
    1770:	ec e8       	ldi	r30, 0x8C	; 140
    1772:	f0 e0       	ldi	r31, 0x00	; 0
    1774:	10 82       	st	Z, r1
	TCNT3 = 0;
    1776:	e8 e8       	ldi	r30, 0x88	; 136
    1778:	f0 e0       	ldi	r31, 0x00	; 0
    177a:	11 82       	std	Z+1, r1	; 0x01
    177c:	10 82       	st	Z, r1
	ICR3 = 0;
    177e:	e0 e8       	ldi	r30, 0x80	; 128
    1780:	f0 e0       	ldi	r31, 0x00	; 0
    1782:	11 82       	std	Z+1, r1	; 0x01
    1784:	10 82       	st	Z, r1

	/* Disable the Input Capture interrupt */
	ETIMSK &= ~(1<<TICIE3);
    1786:	ad e7       	ldi	r26, 0x7D	; 125
    1788:	b0 e0       	ldi	r27, 0x00	; 0
    178a:	ed e7       	ldi	r30, 0x7D	; 125
    178c:	f0 e0       	ldi	r31, 0x00	; 0
    178e:	80 81       	ld	r24, Z
    1790:	8f 7d       	andi	r24, 0xDF	; 223
    1792:	8c 93       	st	X, r24
}
    1794:	cf 91       	pop	r28
    1796:	df 91       	pop	r29
    1798:	08 95       	ret

0000179a <__vector_15>:

/*
 *  Description : Interrupt Service Routine for TIMER0 CTC Mode
 */
ISR(TIMER0_COMP_vect)
{
    179a:	1f 92       	push	r1
    179c:	0f 92       	push	r0
    179e:	0f b6       	in	r0, 0x3f	; 63
    17a0:	0f 92       	push	r0
    17a2:	00 90 5b 00 	lds	r0, 0x005B
    17a6:	0f 92       	push	r0
    17a8:	11 24       	eor	r1, r1
    17aa:	2f 93       	push	r18
    17ac:	3f 93       	push	r19
    17ae:	4f 93       	push	r20
    17b0:	5f 93       	push	r21
    17b2:	6f 93       	push	r22
    17b4:	7f 93       	push	r23
    17b6:	8f 93       	push	r24
    17b8:	9f 93       	push	r25
    17ba:	af 93       	push	r26
    17bc:	bf 93       	push	r27
    17be:	ef 93       	push	r30
    17c0:	ff 93       	push	r31
    17c2:	df 93       	push	r29
    17c4:	cf 93       	push	r28
    17c6:	cd b7       	in	r28, 0x3d	; 61
    17c8:	de b7       	in	r29, 0x3e	; 62
	if(g_TIMER0_callBackPtr != NULL_PTR)
    17ca:	80 91 1e 02 	lds	r24, 0x021E
    17ce:	90 91 1f 02 	lds	r25, 0x021F
    17d2:	00 97       	sbiw	r24, 0x00	; 0
    17d4:	29 f0       	breq	.+10     	; 0x17e0 <__vector_15+0x46>
	{
		/* Call The Call Back function in the application after the timer value = OCR0 Value*/
		(*g_TIMER0_callBackPtr)() ;
    17d6:	e0 91 1e 02 	lds	r30, 0x021E
    17da:	f0 91 1f 02 	lds	r31, 0x021F
    17de:	09 95       	icall
	}
}
    17e0:	cf 91       	pop	r28
    17e2:	df 91       	pop	r29
    17e4:	ff 91       	pop	r31
    17e6:	ef 91       	pop	r30
    17e8:	bf 91       	pop	r27
    17ea:	af 91       	pop	r26
    17ec:	9f 91       	pop	r25
    17ee:	8f 91       	pop	r24
    17f0:	7f 91       	pop	r23
    17f2:	6f 91       	pop	r22
    17f4:	5f 91       	pop	r21
    17f6:	4f 91       	pop	r20
    17f8:	3f 91       	pop	r19
    17fa:	2f 91       	pop	r18
    17fc:	0f 90       	pop	r0
    17fe:	00 92 5b 00 	sts	0x005B, r0
    1802:	0f 90       	pop	r0
    1804:	0f be       	out	0x3f, r0	; 63
    1806:	0f 90       	pop	r0
    1808:	1f 90       	pop	r1
    180a:	18 95       	reti

0000180c <__vector_16>:

/*
 *  Description : Interrupt Service Routine for TIMER0 OverFlow(Normal) Mode
 */
ISR(TIMER0_OVF_vect)
{
    180c:	1f 92       	push	r1
    180e:	0f 92       	push	r0
    1810:	0f b6       	in	r0, 0x3f	; 63
    1812:	0f 92       	push	r0
    1814:	00 90 5b 00 	lds	r0, 0x005B
    1818:	0f 92       	push	r0
    181a:	11 24       	eor	r1, r1
    181c:	2f 93       	push	r18
    181e:	3f 93       	push	r19
    1820:	4f 93       	push	r20
    1822:	5f 93       	push	r21
    1824:	6f 93       	push	r22
    1826:	7f 93       	push	r23
    1828:	8f 93       	push	r24
    182a:	9f 93       	push	r25
    182c:	af 93       	push	r26
    182e:	bf 93       	push	r27
    1830:	ef 93       	push	r30
    1832:	ff 93       	push	r31
    1834:	df 93       	push	r29
    1836:	cf 93       	push	r28
    1838:	cd b7       	in	r28, 0x3d	; 61
    183a:	de b7       	in	r29, 0x3e	; 62
	if(g_TIMER0_callBackPtr != NULL_PTR)
    183c:	80 91 1e 02 	lds	r24, 0x021E
    1840:	90 91 1f 02 	lds	r25, 0x021F
    1844:	00 97       	sbiw	r24, 0x00	; 0
    1846:	29 f0       	breq	.+10     	; 0x1852 <__vector_16+0x46>
	{
		/* Call The Call Back function in the application after the timer value = 1023 */
		(*g_TIMER0_callBackPtr)() ;
    1848:	e0 91 1e 02 	lds	r30, 0x021E
    184c:	f0 91 1f 02 	lds	r31, 0x021F
    1850:	09 95       	icall
	}
}
    1852:	cf 91       	pop	r28
    1854:	df 91       	pop	r29
    1856:	ff 91       	pop	r31
    1858:	ef 91       	pop	r30
    185a:	bf 91       	pop	r27
    185c:	af 91       	pop	r26
    185e:	9f 91       	pop	r25
    1860:	8f 91       	pop	r24
    1862:	7f 91       	pop	r23
    1864:	6f 91       	pop	r22
    1866:	5f 91       	pop	r21
    1868:	4f 91       	pop	r20
    186a:	3f 91       	pop	r19
    186c:	2f 91       	pop	r18
    186e:	0f 90       	pop	r0
    1870:	00 92 5b 00 	sts	0x005B, r0
    1874:	0f 90       	pop	r0
    1876:	0f be       	out	0x3f, r0	; 63
    1878:	0f 90       	pop	r0
    187a:	1f 90       	pop	r1
    187c:	18 95       	reti

0000187e <__vector_9>:

/*
 *  Description : Interrupt Service Routine for TIMER2 CTC Mode
 */
ISR(TIMER2_COMP_vect)
{
    187e:	1f 92       	push	r1
    1880:	0f 92       	push	r0
    1882:	0f b6       	in	r0, 0x3f	; 63
    1884:	0f 92       	push	r0
    1886:	00 90 5b 00 	lds	r0, 0x005B
    188a:	0f 92       	push	r0
    188c:	11 24       	eor	r1, r1
    188e:	2f 93       	push	r18
    1890:	3f 93       	push	r19
    1892:	4f 93       	push	r20
    1894:	5f 93       	push	r21
    1896:	6f 93       	push	r22
    1898:	7f 93       	push	r23
    189a:	8f 93       	push	r24
    189c:	9f 93       	push	r25
    189e:	af 93       	push	r26
    18a0:	bf 93       	push	r27
    18a2:	ef 93       	push	r30
    18a4:	ff 93       	push	r31
    18a6:	df 93       	push	r29
    18a8:	cf 93       	push	r28
    18aa:	cd b7       	in	r28, 0x3d	; 61
    18ac:	de b7       	in	r29, 0x3e	; 62
	if(g_TIMER2_callBackPtr != NULL_PTR)
    18ae:	80 91 20 02 	lds	r24, 0x0220
    18b2:	90 91 21 02 	lds	r25, 0x0221
    18b6:	00 97       	sbiw	r24, 0x00	; 0
    18b8:	29 f0       	breq	.+10     	; 0x18c4 <__vector_9+0x46>
	{
		/* Call The Call Back function in the application after the timer value = OCR0 Value*/
		(*g_TIMER2_callBackPtr)() ;
    18ba:	e0 91 20 02 	lds	r30, 0x0220
    18be:	f0 91 21 02 	lds	r31, 0x0221
    18c2:	09 95       	icall
	}
}
    18c4:	cf 91       	pop	r28
    18c6:	df 91       	pop	r29
    18c8:	ff 91       	pop	r31
    18ca:	ef 91       	pop	r30
    18cc:	bf 91       	pop	r27
    18ce:	af 91       	pop	r26
    18d0:	9f 91       	pop	r25
    18d2:	8f 91       	pop	r24
    18d4:	7f 91       	pop	r23
    18d6:	6f 91       	pop	r22
    18d8:	5f 91       	pop	r21
    18da:	4f 91       	pop	r20
    18dc:	3f 91       	pop	r19
    18de:	2f 91       	pop	r18
    18e0:	0f 90       	pop	r0
    18e2:	00 92 5b 00 	sts	0x005B, r0
    18e6:	0f 90       	pop	r0
    18e8:	0f be       	out	0x3f, r0	; 63
    18ea:	0f 90       	pop	r0
    18ec:	1f 90       	pop	r1
    18ee:	18 95       	reti

000018f0 <__vector_10>:

/*
 *  Description : Interrupt Service Routine for TIMER2 OverFlow(Normal) Mode
 */
ISR(TIMER2_OVF_vect)
{
    18f0:	1f 92       	push	r1
    18f2:	0f 92       	push	r0
    18f4:	0f b6       	in	r0, 0x3f	; 63
    18f6:	0f 92       	push	r0
    18f8:	00 90 5b 00 	lds	r0, 0x005B
    18fc:	0f 92       	push	r0
    18fe:	11 24       	eor	r1, r1
    1900:	2f 93       	push	r18
    1902:	3f 93       	push	r19
    1904:	4f 93       	push	r20
    1906:	5f 93       	push	r21
    1908:	6f 93       	push	r22
    190a:	7f 93       	push	r23
    190c:	8f 93       	push	r24
    190e:	9f 93       	push	r25
    1910:	af 93       	push	r26
    1912:	bf 93       	push	r27
    1914:	ef 93       	push	r30
    1916:	ff 93       	push	r31
    1918:	df 93       	push	r29
    191a:	cf 93       	push	r28
    191c:	cd b7       	in	r28, 0x3d	; 61
    191e:	de b7       	in	r29, 0x3e	; 62
	if(g_TIMER2_callBackPtr != NULL_PTR)
    1920:	80 91 20 02 	lds	r24, 0x0220
    1924:	90 91 21 02 	lds	r25, 0x0221
    1928:	00 97       	sbiw	r24, 0x00	; 0
    192a:	29 f0       	breq	.+10     	; 0x1936 <__vector_10+0x46>
	{
		/* Call The Call Back function in the application after the timer value = 1023 */
		(*g_TIMER2_callBackPtr)() ;
    192c:	e0 91 20 02 	lds	r30, 0x0220
    1930:	f0 91 21 02 	lds	r31, 0x0221
    1934:	09 95       	icall
	}
}
    1936:	cf 91       	pop	r28
    1938:	df 91       	pop	r29
    193a:	ff 91       	pop	r31
    193c:	ef 91       	pop	r30
    193e:	bf 91       	pop	r27
    1940:	af 91       	pop	r26
    1942:	9f 91       	pop	r25
    1944:	8f 91       	pop	r24
    1946:	7f 91       	pop	r23
    1948:	6f 91       	pop	r22
    194a:	5f 91       	pop	r21
    194c:	4f 91       	pop	r20
    194e:	3f 91       	pop	r19
    1950:	2f 91       	pop	r18
    1952:	0f 90       	pop	r0
    1954:	00 92 5b 00 	sts	0x005B, r0
    1958:	0f 90       	pop	r0
    195a:	0f be       	out	0x3f, r0	; 63
    195c:	0f 90       	pop	r0
    195e:	1f 90       	pop	r1
    1960:	18 95       	reti

00001962 <__vector_12>:

/*
 *  Description : Interrupt Service Routine for TIMER1 CTC Mode
 */
ISR(TIMER1_COMPA_vect)
{
    1962:	1f 92       	push	r1
    1964:	0f 92       	push	r0
    1966:	0f b6       	in	r0, 0x3f	; 63
    1968:	0f 92       	push	r0
    196a:	00 90 5b 00 	lds	r0, 0x005B
    196e:	0f 92       	push	r0
    1970:	11 24       	eor	r1, r1
    1972:	2f 93       	push	r18
    1974:	3f 93       	push	r19
    1976:	4f 93       	push	r20
    1978:	5f 93       	push	r21
    197a:	6f 93       	push	r22
    197c:	7f 93       	push	r23
    197e:	8f 93       	push	r24
    1980:	9f 93       	push	r25
    1982:	af 93       	push	r26
    1984:	bf 93       	push	r27
    1986:	ef 93       	push	r30
    1988:	ff 93       	push	r31
    198a:	df 93       	push	r29
    198c:	cf 93       	push	r28
    198e:	cd b7       	in	r28, 0x3d	; 61
    1990:	de b7       	in	r29, 0x3e	; 62
	if(g_TIMER1_callBackPtr != NULL_PTR)
    1992:	80 91 22 02 	lds	r24, 0x0222
    1996:	90 91 23 02 	lds	r25, 0x0223
    199a:	00 97       	sbiw	r24, 0x00	; 0
    199c:	29 f0       	breq	.+10     	; 0x19a8 <__vector_12+0x46>
	{
		/* Call The Call Back function in the application after the timer value = OCR1A Value*/
		(*g_TIMER1_callBackPtr)() ;
    199e:	e0 91 22 02 	lds	r30, 0x0222
    19a2:	f0 91 23 02 	lds	r31, 0x0223
    19a6:	09 95       	icall
	}
}
    19a8:	cf 91       	pop	r28
    19aa:	df 91       	pop	r29
    19ac:	ff 91       	pop	r31
    19ae:	ef 91       	pop	r30
    19b0:	bf 91       	pop	r27
    19b2:	af 91       	pop	r26
    19b4:	9f 91       	pop	r25
    19b6:	8f 91       	pop	r24
    19b8:	7f 91       	pop	r23
    19ba:	6f 91       	pop	r22
    19bc:	5f 91       	pop	r21
    19be:	4f 91       	pop	r20
    19c0:	3f 91       	pop	r19
    19c2:	2f 91       	pop	r18
    19c4:	0f 90       	pop	r0
    19c6:	00 92 5b 00 	sts	0x005B, r0
    19ca:	0f 90       	pop	r0
    19cc:	0f be       	out	0x3f, r0	; 63
    19ce:	0f 90       	pop	r0
    19d0:	1f 90       	pop	r1
    19d2:	18 95       	reti

000019d4 <__vector_13>:
/*
 *  Description : Interrupt Service Routine for TIMER1 CTC Mode
 */
ISR(TIMER1_COMPB_vect)
{
    19d4:	1f 92       	push	r1
    19d6:	0f 92       	push	r0
    19d8:	0f b6       	in	r0, 0x3f	; 63
    19da:	0f 92       	push	r0
    19dc:	00 90 5b 00 	lds	r0, 0x005B
    19e0:	0f 92       	push	r0
    19e2:	11 24       	eor	r1, r1
    19e4:	2f 93       	push	r18
    19e6:	3f 93       	push	r19
    19e8:	4f 93       	push	r20
    19ea:	5f 93       	push	r21
    19ec:	6f 93       	push	r22
    19ee:	7f 93       	push	r23
    19f0:	8f 93       	push	r24
    19f2:	9f 93       	push	r25
    19f4:	af 93       	push	r26
    19f6:	bf 93       	push	r27
    19f8:	ef 93       	push	r30
    19fa:	ff 93       	push	r31
    19fc:	df 93       	push	r29
    19fe:	cf 93       	push	r28
    1a00:	cd b7       	in	r28, 0x3d	; 61
    1a02:	de b7       	in	r29, 0x3e	; 62
	if(g_TIMER1_callBackPtr != NULL_PTR)
    1a04:	80 91 22 02 	lds	r24, 0x0222
    1a08:	90 91 23 02 	lds	r25, 0x0223
    1a0c:	00 97       	sbiw	r24, 0x00	; 0
    1a0e:	29 f0       	breq	.+10     	; 0x1a1a <__vector_13+0x46>
	{
		/* Call The Call Back function in the application after the timer value = OCR1B Value*/
		(*g_TIMER1_callBackPtr)() ;
    1a10:	e0 91 22 02 	lds	r30, 0x0222
    1a14:	f0 91 23 02 	lds	r31, 0x0223
    1a18:	09 95       	icall
	}
}
    1a1a:	cf 91       	pop	r28
    1a1c:	df 91       	pop	r29
    1a1e:	ff 91       	pop	r31
    1a20:	ef 91       	pop	r30
    1a22:	bf 91       	pop	r27
    1a24:	af 91       	pop	r26
    1a26:	9f 91       	pop	r25
    1a28:	8f 91       	pop	r24
    1a2a:	7f 91       	pop	r23
    1a2c:	6f 91       	pop	r22
    1a2e:	5f 91       	pop	r21
    1a30:	4f 91       	pop	r20
    1a32:	3f 91       	pop	r19
    1a34:	2f 91       	pop	r18
    1a36:	0f 90       	pop	r0
    1a38:	00 92 5b 00 	sts	0x005B, r0
    1a3c:	0f 90       	pop	r0
    1a3e:	0f be       	out	0x3f, r0	; 63
    1a40:	0f 90       	pop	r0
    1a42:	1f 90       	pop	r1
    1a44:	18 95       	reti

00001a46 <__vector_24>:
/*
 *  Description : Interrupt Service Routine for TIMER1 CTC Mode
 */
ISR(TIMER1_COMPC_vect)
{
    1a46:	1f 92       	push	r1
    1a48:	0f 92       	push	r0
    1a4a:	0f b6       	in	r0, 0x3f	; 63
    1a4c:	0f 92       	push	r0
    1a4e:	00 90 5b 00 	lds	r0, 0x005B
    1a52:	0f 92       	push	r0
    1a54:	11 24       	eor	r1, r1
    1a56:	2f 93       	push	r18
    1a58:	3f 93       	push	r19
    1a5a:	4f 93       	push	r20
    1a5c:	5f 93       	push	r21
    1a5e:	6f 93       	push	r22
    1a60:	7f 93       	push	r23
    1a62:	8f 93       	push	r24
    1a64:	9f 93       	push	r25
    1a66:	af 93       	push	r26
    1a68:	bf 93       	push	r27
    1a6a:	ef 93       	push	r30
    1a6c:	ff 93       	push	r31
    1a6e:	df 93       	push	r29
    1a70:	cf 93       	push	r28
    1a72:	cd b7       	in	r28, 0x3d	; 61
    1a74:	de b7       	in	r29, 0x3e	; 62
	if(g_TIMER1_callBackPtr != NULL_PTR)
    1a76:	80 91 22 02 	lds	r24, 0x0222
    1a7a:	90 91 23 02 	lds	r25, 0x0223
    1a7e:	00 97       	sbiw	r24, 0x00	; 0
    1a80:	29 f0       	breq	.+10     	; 0x1a8c <__vector_24+0x46>
	{
		/* Call The Call Back function in the application after the timer value = OCR1C Value*/
		(*g_TIMER1_callBackPtr)() ;
    1a82:	e0 91 22 02 	lds	r30, 0x0222
    1a86:	f0 91 23 02 	lds	r31, 0x0223
    1a8a:	09 95       	icall
	}
}
    1a8c:	cf 91       	pop	r28
    1a8e:	df 91       	pop	r29
    1a90:	ff 91       	pop	r31
    1a92:	ef 91       	pop	r30
    1a94:	bf 91       	pop	r27
    1a96:	af 91       	pop	r26
    1a98:	9f 91       	pop	r25
    1a9a:	8f 91       	pop	r24
    1a9c:	7f 91       	pop	r23
    1a9e:	6f 91       	pop	r22
    1aa0:	5f 91       	pop	r21
    1aa2:	4f 91       	pop	r20
    1aa4:	3f 91       	pop	r19
    1aa6:	2f 91       	pop	r18
    1aa8:	0f 90       	pop	r0
    1aaa:	00 92 5b 00 	sts	0x005B, r0
    1aae:	0f 90       	pop	r0
    1ab0:	0f be       	out	0x3f, r0	; 63
    1ab2:	0f 90       	pop	r0
    1ab4:	1f 90       	pop	r1
    1ab6:	18 95       	reti

00001ab8 <__vector_14>:

/*
 *  Description : Interrupt Service Routine for TIMER1 OverFlow(Normal) Mode
 */
ISR(TIMER1_OVF_vect)
{
    1ab8:	1f 92       	push	r1
    1aba:	0f 92       	push	r0
    1abc:	0f b6       	in	r0, 0x3f	; 63
    1abe:	0f 92       	push	r0
    1ac0:	00 90 5b 00 	lds	r0, 0x005B
    1ac4:	0f 92       	push	r0
    1ac6:	11 24       	eor	r1, r1
    1ac8:	2f 93       	push	r18
    1aca:	3f 93       	push	r19
    1acc:	4f 93       	push	r20
    1ace:	5f 93       	push	r21
    1ad0:	6f 93       	push	r22
    1ad2:	7f 93       	push	r23
    1ad4:	8f 93       	push	r24
    1ad6:	9f 93       	push	r25
    1ad8:	af 93       	push	r26
    1ada:	bf 93       	push	r27
    1adc:	ef 93       	push	r30
    1ade:	ff 93       	push	r31
    1ae0:	df 93       	push	r29
    1ae2:	cf 93       	push	r28
    1ae4:	cd b7       	in	r28, 0x3d	; 61
    1ae6:	de b7       	in	r29, 0x3e	; 62
	if(g_TIMER1_callBackPtr != NULL_PTR)
    1ae8:	80 91 22 02 	lds	r24, 0x0222
    1aec:	90 91 23 02 	lds	r25, 0x0223
    1af0:	00 97       	sbiw	r24, 0x00	; 0
    1af2:	29 f0       	breq	.+10     	; 0x1afe <__vector_14+0x46>
	{
		/* Call The Call Back function in the application after the timer value = 65,535 */
		(*g_TIMER1_callBackPtr)() ;
    1af4:	e0 91 22 02 	lds	r30, 0x0222
    1af8:	f0 91 23 02 	lds	r31, 0x0223
    1afc:	09 95       	icall
	}
}
    1afe:	cf 91       	pop	r28
    1b00:	df 91       	pop	r29
    1b02:	ff 91       	pop	r31
    1b04:	ef 91       	pop	r30
    1b06:	bf 91       	pop	r27
    1b08:	af 91       	pop	r26
    1b0a:	9f 91       	pop	r25
    1b0c:	8f 91       	pop	r24
    1b0e:	7f 91       	pop	r23
    1b10:	6f 91       	pop	r22
    1b12:	5f 91       	pop	r21
    1b14:	4f 91       	pop	r20
    1b16:	3f 91       	pop	r19
    1b18:	2f 91       	pop	r18
    1b1a:	0f 90       	pop	r0
    1b1c:	00 92 5b 00 	sts	0x005B, r0
    1b20:	0f 90       	pop	r0
    1b22:	0f be       	out	0x3f, r0	; 63
    1b24:	0f 90       	pop	r0
    1b26:	1f 90       	pop	r1
    1b28:	18 95       	reti

00001b2a <__vector_26>:

ISR(TIMER3_COMPA_vect)
{
    1b2a:	1f 92       	push	r1
    1b2c:	0f 92       	push	r0
    1b2e:	0f b6       	in	r0, 0x3f	; 63
    1b30:	0f 92       	push	r0
    1b32:	00 90 5b 00 	lds	r0, 0x005B
    1b36:	0f 92       	push	r0
    1b38:	11 24       	eor	r1, r1
    1b3a:	2f 93       	push	r18
    1b3c:	3f 93       	push	r19
    1b3e:	4f 93       	push	r20
    1b40:	5f 93       	push	r21
    1b42:	6f 93       	push	r22
    1b44:	7f 93       	push	r23
    1b46:	8f 93       	push	r24
    1b48:	9f 93       	push	r25
    1b4a:	af 93       	push	r26
    1b4c:	bf 93       	push	r27
    1b4e:	ef 93       	push	r30
    1b50:	ff 93       	push	r31
    1b52:	df 93       	push	r29
    1b54:	cf 93       	push	r28
    1b56:	cd b7       	in	r28, 0x3d	; 61
    1b58:	de b7       	in	r29, 0x3e	; 62
	if(g_TIMER3_callBackPtr != NULL_PTR)
    1b5a:	80 91 24 02 	lds	r24, 0x0224
    1b5e:	90 91 25 02 	lds	r25, 0x0225
    1b62:	00 97       	sbiw	r24, 0x00	; 0
    1b64:	29 f0       	breq	.+10     	; 0x1b70 <__vector_26+0x46>
	{
		/* Call The Call Back function in the application after the timer value = OCR3A Value*/
		(*g_TIMER3_callBackPtr)() ;
    1b66:	e0 91 24 02 	lds	r30, 0x0224
    1b6a:	f0 91 25 02 	lds	r31, 0x0225
    1b6e:	09 95       	icall
	}
}
    1b70:	cf 91       	pop	r28
    1b72:	df 91       	pop	r29
    1b74:	ff 91       	pop	r31
    1b76:	ef 91       	pop	r30
    1b78:	bf 91       	pop	r27
    1b7a:	af 91       	pop	r26
    1b7c:	9f 91       	pop	r25
    1b7e:	8f 91       	pop	r24
    1b80:	7f 91       	pop	r23
    1b82:	6f 91       	pop	r22
    1b84:	5f 91       	pop	r21
    1b86:	4f 91       	pop	r20
    1b88:	3f 91       	pop	r19
    1b8a:	2f 91       	pop	r18
    1b8c:	0f 90       	pop	r0
    1b8e:	00 92 5b 00 	sts	0x005B, r0
    1b92:	0f 90       	pop	r0
    1b94:	0f be       	out	0x3f, r0	; 63
    1b96:	0f 90       	pop	r0
    1b98:	1f 90       	pop	r1
    1b9a:	18 95       	reti

00001b9c <__vector_27>:
ISR(TIMER3_COMPB_vect)
{
    1b9c:	1f 92       	push	r1
    1b9e:	0f 92       	push	r0
    1ba0:	0f b6       	in	r0, 0x3f	; 63
    1ba2:	0f 92       	push	r0
    1ba4:	00 90 5b 00 	lds	r0, 0x005B
    1ba8:	0f 92       	push	r0
    1baa:	11 24       	eor	r1, r1
    1bac:	2f 93       	push	r18
    1bae:	3f 93       	push	r19
    1bb0:	4f 93       	push	r20
    1bb2:	5f 93       	push	r21
    1bb4:	6f 93       	push	r22
    1bb6:	7f 93       	push	r23
    1bb8:	8f 93       	push	r24
    1bba:	9f 93       	push	r25
    1bbc:	af 93       	push	r26
    1bbe:	bf 93       	push	r27
    1bc0:	ef 93       	push	r30
    1bc2:	ff 93       	push	r31
    1bc4:	df 93       	push	r29
    1bc6:	cf 93       	push	r28
    1bc8:	cd b7       	in	r28, 0x3d	; 61
    1bca:	de b7       	in	r29, 0x3e	; 62
	if(g_TIMER3_callBackPtr != NULL_PTR)
    1bcc:	80 91 24 02 	lds	r24, 0x0224
    1bd0:	90 91 25 02 	lds	r25, 0x0225
    1bd4:	00 97       	sbiw	r24, 0x00	; 0
    1bd6:	29 f0       	breq	.+10     	; 0x1be2 <__vector_27+0x46>
	{
		/* Call The Call Back function in the application after the timer value = OCR3B Value*/
		(*g_TIMER3_callBackPtr)() ;
    1bd8:	e0 91 24 02 	lds	r30, 0x0224
    1bdc:	f0 91 25 02 	lds	r31, 0x0225
    1be0:	09 95       	icall
	}
}
    1be2:	cf 91       	pop	r28
    1be4:	df 91       	pop	r29
    1be6:	ff 91       	pop	r31
    1be8:	ef 91       	pop	r30
    1bea:	bf 91       	pop	r27
    1bec:	af 91       	pop	r26
    1bee:	9f 91       	pop	r25
    1bf0:	8f 91       	pop	r24
    1bf2:	7f 91       	pop	r23
    1bf4:	6f 91       	pop	r22
    1bf6:	5f 91       	pop	r21
    1bf8:	4f 91       	pop	r20
    1bfa:	3f 91       	pop	r19
    1bfc:	2f 91       	pop	r18
    1bfe:	0f 90       	pop	r0
    1c00:	00 92 5b 00 	sts	0x005B, r0
    1c04:	0f 90       	pop	r0
    1c06:	0f be       	out	0x3f, r0	; 63
    1c08:	0f 90       	pop	r0
    1c0a:	1f 90       	pop	r1
    1c0c:	18 95       	reti

00001c0e <__vector_28>:
ISR(TIMER3_COMPC_vect)
{
    1c0e:	1f 92       	push	r1
    1c10:	0f 92       	push	r0
    1c12:	0f b6       	in	r0, 0x3f	; 63
    1c14:	0f 92       	push	r0
    1c16:	00 90 5b 00 	lds	r0, 0x005B
    1c1a:	0f 92       	push	r0
    1c1c:	11 24       	eor	r1, r1
    1c1e:	2f 93       	push	r18
    1c20:	3f 93       	push	r19
    1c22:	4f 93       	push	r20
    1c24:	5f 93       	push	r21
    1c26:	6f 93       	push	r22
    1c28:	7f 93       	push	r23
    1c2a:	8f 93       	push	r24
    1c2c:	9f 93       	push	r25
    1c2e:	af 93       	push	r26
    1c30:	bf 93       	push	r27
    1c32:	ef 93       	push	r30
    1c34:	ff 93       	push	r31
    1c36:	df 93       	push	r29
    1c38:	cf 93       	push	r28
    1c3a:	cd b7       	in	r28, 0x3d	; 61
    1c3c:	de b7       	in	r29, 0x3e	; 62
	if(g_TIMER3_callBackPtr != NULL_PTR)
    1c3e:	80 91 24 02 	lds	r24, 0x0224
    1c42:	90 91 25 02 	lds	r25, 0x0225
    1c46:	00 97       	sbiw	r24, 0x00	; 0
    1c48:	29 f0       	breq	.+10     	; 0x1c54 <__vector_28+0x46>
	{
		/* Call The Call Back function in the application after the timer value = OCR3C Value*/
		(*g_TIMER3_callBackPtr)() ;
    1c4a:	e0 91 24 02 	lds	r30, 0x0224
    1c4e:	f0 91 25 02 	lds	r31, 0x0225
    1c52:	09 95       	icall
	}
}
    1c54:	cf 91       	pop	r28
    1c56:	df 91       	pop	r29
    1c58:	ff 91       	pop	r31
    1c5a:	ef 91       	pop	r30
    1c5c:	bf 91       	pop	r27
    1c5e:	af 91       	pop	r26
    1c60:	9f 91       	pop	r25
    1c62:	8f 91       	pop	r24
    1c64:	7f 91       	pop	r23
    1c66:	6f 91       	pop	r22
    1c68:	5f 91       	pop	r21
    1c6a:	4f 91       	pop	r20
    1c6c:	3f 91       	pop	r19
    1c6e:	2f 91       	pop	r18
    1c70:	0f 90       	pop	r0
    1c72:	00 92 5b 00 	sts	0x005B, r0
    1c76:	0f 90       	pop	r0
    1c78:	0f be       	out	0x3f, r0	; 63
    1c7a:	0f 90       	pop	r0
    1c7c:	1f 90       	pop	r1
    1c7e:	18 95       	reti

00001c80 <__vector_29>:

/*
 *  Description : Interrupt Service Routine for TIMER3 OverFlow(Normal) Mode
 */
ISR(TIMER3_OVF_vect)
{
    1c80:	1f 92       	push	r1
    1c82:	0f 92       	push	r0
    1c84:	0f b6       	in	r0, 0x3f	; 63
    1c86:	0f 92       	push	r0
    1c88:	00 90 5b 00 	lds	r0, 0x005B
    1c8c:	0f 92       	push	r0
    1c8e:	11 24       	eor	r1, r1
    1c90:	2f 93       	push	r18
    1c92:	3f 93       	push	r19
    1c94:	4f 93       	push	r20
    1c96:	5f 93       	push	r21
    1c98:	6f 93       	push	r22
    1c9a:	7f 93       	push	r23
    1c9c:	8f 93       	push	r24
    1c9e:	9f 93       	push	r25
    1ca0:	af 93       	push	r26
    1ca2:	bf 93       	push	r27
    1ca4:	ef 93       	push	r30
    1ca6:	ff 93       	push	r31
    1ca8:	df 93       	push	r29
    1caa:	cf 93       	push	r28
    1cac:	cd b7       	in	r28, 0x3d	; 61
    1cae:	de b7       	in	r29, 0x3e	; 62
	if(g_TIMER3_callBackPtr != NULL_PTR)
    1cb0:	80 91 24 02 	lds	r24, 0x0224
    1cb4:	90 91 25 02 	lds	r25, 0x0225
    1cb8:	00 97       	sbiw	r24, 0x00	; 0
    1cba:	29 f0       	breq	.+10     	; 0x1cc6 <__vector_29+0x46>
	{
		/* Call The Call Back function in the application after the timer value = 65,535 */
		(*g_TIMER3_callBackPtr)() ;
    1cbc:	e0 91 24 02 	lds	r30, 0x0224
    1cc0:	f0 91 25 02 	lds	r31, 0x0225
    1cc4:	09 95       	icall
	}
}
    1cc6:	cf 91       	pop	r28
    1cc8:	df 91       	pop	r29
    1cca:	ff 91       	pop	r31
    1ccc:	ef 91       	pop	r30
    1cce:	bf 91       	pop	r27
    1cd0:	af 91       	pop	r26
    1cd2:	9f 91       	pop	r25
    1cd4:	8f 91       	pop	r24
    1cd6:	7f 91       	pop	r23
    1cd8:	6f 91       	pop	r22
    1cda:	5f 91       	pop	r21
    1cdc:	4f 91       	pop	r20
    1cde:	3f 91       	pop	r19
    1ce0:	2f 91       	pop	r18
    1ce2:	0f 90       	pop	r0
    1ce4:	00 92 5b 00 	sts	0x005B, r0
    1ce8:	0f 90       	pop	r0
    1cea:	0f be       	out	0x3f, r0	; 63
    1cec:	0f 90       	pop	r0
    1cee:	1f 90       	pop	r1
    1cf0:	18 95       	reti

00001cf2 <TIMER0_init>:
          -  2. Configure Control Register TCCR0 depending on
                desired configurations
          -  3. Enable Interrupts depending on selected mode
          ----------------------------------------------------*/
void TIMER0_init (TIMER_ConfigType *config_ptr)
{
    1cf2:	df 93       	push	r29
    1cf4:	cf 93       	push	r28
    1cf6:	00 d0       	rcall	.+0      	; 0x1cf8 <TIMER0_init+0x6>
    1cf8:	00 d0       	rcall	.+0      	; 0x1cfa <TIMER0_init+0x8>
    1cfa:	cd b7       	in	r28, 0x3d	; 61
    1cfc:	de b7       	in	r29, 0x3e	; 62
    1cfe:	9a 83       	std	Y+2, r25	; 0x02
    1d00:	89 83       	std	Y+1, r24	; 0x01
	g_T0clock = (config_ptr ->clock);
    1d02:	e9 81       	ldd	r30, Y+1	; 0x01
    1d04:	fa 81       	ldd	r31, Y+2	; 0x02
    1d06:	80 81       	ld	r24, Z
    1d08:	80 93 26 02 	sts	0x0226, r24

	/* Set Timer initial value to 0 */
	TCNT0 = 0;
    1d0c:	e2 e5       	ldi	r30, 0x52	; 82
    1d0e:	f0 e0       	ldi	r31, 0x00	; 0
    1d10:	10 82       	st	Z, r1
-  1. FOC0 = 1 in non-PWM modes so mask it with selected mode
-  2. WGM01:0(bit3,6) Waveform generation mode
-  3. COM01:0 Compare match output mode (OC)
-  3. CS02:0 Clock Select
----------------------------------------------------*/
	TCCR0 = (((config_ptr ->mode)<<FOC0)& 0x80) | (((config_ptr ->mode)<<WGM00)& 0x40)
    1d12:	a3 e5       	ldi	r26, 0x53	; 83
    1d14:	b0 e0       	ldi	r27, 0x00	; 0
    1d16:	e9 81       	ldd	r30, Y+1	; 0x01
    1d18:	fa 81       	ldd	r31, Y+2	; 0x02
    1d1a:	81 81       	ldd	r24, Z+1	; 0x01
    1d1c:	88 2f       	mov	r24, r24
    1d1e:	90 e0       	ldi	r25, 0x00	; 0
    1d20:	96 95       	lsr	r25
    1d22:	98 2f       	mov	r25, r24
    1d24:	88 27       	eor	r24, r24
    1d26:	97 95       	ror	r25
    1d28:	87 95       	ror	r24
    1d2a:	28 2f       	mov	r18, r24
    1d2c:	e9 81       	ldd	r30, Y+1	; 0x01
    1d2e:	fa 81       	ldd	r31, Y+2	; 0x02
    1d30:	81 81       	ldd	r24, Z+1	; 0x01
    1d32:	88 2f       	mov	r24, r24
    1d34:	90 e0       	ldi	r25, 0x00	; 0
    1d36:	00 24       	eor	r0, r0
    1d38:	96 95       	lsr	r25
    1d3a:	87 95       	ror	r24
    1d3c:	07 94       	ror	r0
    1d3e:	96 95       	lsr	r25
    1d40:	87 95       	ror	r24
    1d42:	07 94       	ror	r0
    1d44:	98 2f       	mov	r25, r24
    1d46:	80 2d       	mov	r24, r0
    1d48:	80 74       	andi	r24, 0x40	; 64
    1d4a:	28 2b       	or	r18, r24
    1d4c:	e9 81       	ldd	r30, Y+1	; 0x01
    1d4e:	fa 81       	ldd	r31, Y+2	; 0x02
    1d50:	81 81       	ldd	r24, Z+1	; 0x01
    1d52:	88 2f       	mov	r24, r24
    1d54:	90 e0       	ldi	r25, 0x00	; 0
    1d56:	88 0f       	add	r24, r24
    1d58:	99 1f       	adc	r25, r25
    1d5a:	88 0f       	add	r24, r24
    1d5c:	99 1f       	adc	r25, r25
    1d5e:	88 70       	andi	r24, 0x08	; 8
    1d60:	28 2b       	or	r18, r24
    1d62:	e9 81       	ldd	r30, Y+1	; 0x01
    1d64:	fa 81       	ldd	r31, Y+2	; 0x02
    1d66:	84 81       	ldd	r24, Z+4	; 0x04
    1d68:	88 2f       	mov	r24, r24
    1d6a:	90 e0       	ldi	r25, 0x00	; 0
    1d6c:	82 95       	swap	r24
    1d6e:	92 95       	swap	r25
    1d70:	90 7f       	andi	r25, 0xF0	; 240
    1d72:	98 27       	eor	r25, r24
    1d74:	80 7f       	andi	r24, 0xF0	; 240
    1d76:	98 27       	eor	r25, r24
    1d78:	92 2f       	mov	r25, r18
    1d7a:	98 2b       	or	r25, r24
    1d7c:	e9 81       	ldd	r30, Y+1	; 0x01
    1d7e:	fa 81       	ldd	r31, Y+2	; 0x02
    1d80:	80 81       	ld	r24, Z
    1d82:	89 2b       	or	r24, r25
    1d84:	8c 93       	st	X, r24
			| (((config_ptr ->mode)<<(WGM01-1)) & 0x08)
			| ((config_ptr ->OC)<<COM00) | ((config_ptr ->clock)<<CS00);

	/* Enable Timer overflow Interrupt if NORMAL mode selected */
	if (config_ptr ->mode == NORMAL)
    1d86:	e9 81       	ldd	r30, Y+1	; 0x01
    1d88:	fa 81       	ldd	r31, Y+2	; 0x02
    1d8a:	81 81       	ldd	r24, Z+1	; 0x01
    1d8c:	88 23       	and	r24, r24
    1d8e:	41 f4       	brne	.+16     	; 0x1da0 <TIMER0_init+0xae>
	{
		SET_BIT (TIMSK,TOIE0);                  /* Timer overflow Interrupt Enable */
    1d90:	a7 e5       	ldi	r26, 0x57	; 87
    1d92:	b0 e0       	ldi	r27, 0x00	; 0
    1d94:	e7 e5       	ldi	r30, 0x57	; 87
    1d96:	f0 e0       	ldi	r31, 0x00	; 0
    1d98:	80 81       	ld	r24, Z
    1d9a:	81 60       	ori	r24, 0x01	; 1
    1d9c:	8c 93       	st	X, r24
    1d9e:	52 c0       	rjmp	.+164    	; 0x1e44 <TIMER0_init+0x152>
	}

	/* Enable Compare match Interrupt if Compare mode selected */
	else if (config_ptr ->mode == COMP)
    1da0:	e9 81       	ldd	r30, Y+1	; 0x01
    1da2:	fa 81       	ldd	r31, Y+2	; 0x02
    1da4:	81 81       	ldd	r24, Z+1	; 0x01
    1da6:	82 30       	cpi	r24, 0x02	; 2
    1da8:	79 f4       	brne	.+30     	; 0x1dc8 <TIMER0_init+0xd6>
	{
		SET_BIT (TIMSK,OCIE0);                  /* Compare match Interrupt Enable */
    1daa:	a7 e5       	ldi	r26, 0x57	; 87
    1dac:	b0 e0       	ldi	r27, 0x00	; 0
    1dae:	e7 e5       	ldi	r30, 0x57	; 87
    1db0:	f0 e0       	ldi	r31, 0x00	; 0
    1db2:	80 81       	ld	r24, Z
    1db4:	82 60       	ori	r24, 0x02	; 2
    1db6:	8c 93       	st	X, r24
		OCR0 = (uint8)(config_ptr ->OCRValue); /* Compare Value */
    1db8:	a1 e5       	ldi	r26, 0x51	; 81
    1dba:	b0 e0       	ldi	r27, 0x00	; 0
    1dbc:	e9 81       	ldd	r30, Y+1	; 0x01
    1dbe:	fa 81       	ldd	r31, Y+2	; 0x02
    1dc0:	82 81       	ldd	r24, Z+2	; 0x02
    1dc2:	93 81       	ldd	r25, Z+3	; 0x03
    1dc4:	8c 93       	st	X, r24
    1dc6:	3e c0       	rjmp	.+124    	; 0x1e44 <TIMER0_init+0x152>
	}

	/* Square wave generator (Toggle) */
	else if ((config_ptr ->mode == COMP) & (config_ptr ->OC == TOGGLE))
    1dc8:	e9 81       	ldd	r30, Y+1	; 0x01
    1dca:	fa 81       	ldd	r31, Y+2	; 0x02
    1dcc:	81 81       	ldd	r24, Z+1	; 0x01
    1dce:	1c 82       	std	Y+4, r1	; 0x04
    1dd0:	82 30       	cpi	r24, 0x02	; 2
    1dd2:	11 f4       	brne	.+4      	; 0x1dd8 <TIMER0_init+0xe6>
    1dd4:	81 e0       	ldi	r24, 0x01	; 1
    1dd6:	8c 83       	std	Y+4, r24	; 0x04
    1dd8:	e9 81       	ldd	r30, Y+1	; 0x01
    1dda:	fa 81       	ldd	r31, Y+2	; 0x02
    1ddc:	84 81       	ldd	r24, Z+4	; 0x04
    1dde:	1b 82       	std	Y+3, r1	; 0x03
    1de0:	81 30       	cpi	r24, 0x01	; 1
    1de2:	11 f4       	brne	.+4      	; 0x1de8 <TIMER0_init+0xf6>
    1de4:	91 e0       	ldi	r25, 0x01	; 1
    1de6:	9b 83       	std	Y+3, r25	; 0x03
    1de8:	8c 81       	ldd	r24, Y+4	; 0x04
    1dea:	9b 81       	ldd	r25, Y+3	; 0x03
    1dec:	89 23       	and	r24, r25
    1dee:	88 23       	and	r24, r24
    1df0:	b1 f0       	breq	.+44     	; 0x1e1e <TIMER0_init+0x12c>
	{
		SET_BIT (TIMSK,OCIE0);                  /* Compare match Interrupt Enable */
    1df2:	a7 e5       	ldi	r26, 0x57	; 87
    1df4:	b0 e0       	ldi	r27, 0x00	; 0
    1df6:	e7 e5       	ldi	r30, 0x57	; 87
    1df8:	f0 e0       	ldi	r31, 0x00	; 0
    1dfa:	80 81       	ld	r24, Z
    1dfc:	82 60       	ori	r24, 0x02	; 2
    1dfe:	8c 93       	st	X, r24
		SET_BIT (DDRB,PB4);                     /* Configure PB4/OC0 Pin as output pin */
    1e00:	a7 e3       	ldi	r26, 0x37	; 55
    1e02:	b0 e0       	ldi	r27, 0x00	; 0
    1e04:	e7 e3       	ldi	r30, 0x37	; 55
    1e06:	f0 e0       	ldi	r31, 0x00	; 0
    1e08:	80 81       	ld	r24, Z
    1e0a:	80 61       	ori	r24, 0x10	; 16
    1e0c:	8c 93       	st	X, r24
		OCR0 = (uint8)(config_ptr ->OCRValue); /* Compare Value */
    1e0e:	a1 e5       	ldi	r26, 0x51	; 81
    1e10:	b0 e0       	ldi	r27, 0x00	; 0
    1e12:	e9 81       	ldd	r30, Y+1	; 0x01
    1e14:	fa 81       	ldd	r31, Y+2	; 0x02
    1e16:	82 81       	ldd	r24, Z+2	; 0x02
    1e18:	93 81       	ldd	r25, Z+3	; 0x03
    1e1a:	8c 93       	st	X, r24
    1e1c:	13 c0       	rjmp	.+38     	; 0x1e44 <TIMER0_init+0x152>
	}

	/* PWM mode specials */
	else if (config_ptr ->mode == PWM)
    1e1e:	e9 81       	ldd	r30, Y+1	; 0x01
    1e20:	fa 81       	ldd	r31, Y+2	; 0x02
    1e22:	81 81       	ldd	r24, Z+1	; 0x01
    1e24:	83 30       	cpi	r24, 0x03	; 3
    1e26:	71 f4       	brne	.+28     	; 0x1e44 <TIMER0_init+0x152>
	{
		SET_BIT (DDRB,PB4);                     /* Configure PB4/OC0 Pin as output pin */
    1e28:	a7 e3       	ldi	r26, 0x37	; 55
    1e2a:	b0 e0       	ldi	r27, 0x00	; 0
    1e2c:	e7 e3       	ldi	r30, 0x37	; 55
    1e2e:	f0 e0       	ldi	r31, 0x00	; 0
    1e30:	80 81       	ld	r24, Z
    1e32:	80 61       	ori	r24, 0x10	; 16
    1e34:	8c 93       	st	X, r24
		OCR0 = (uint8)(config_ptr ->OCRValue); /* Duty Cycle Value */
    1e36:	a1 e5       	ldi	r26, 0x51	; 81
    1e38:	b0 e0       	ldi	r27, 0x00	; 0
    1e3a:	e9 81       	ldd	r30, Y+1	; 0x01
    1e3c:	fa 81       	ldd	r31, Y+2	; 0x02
    1e3e:	82 81       	ldd	r24, Z+2	; 0x02
    1e40:	93 81       	ldd	r25, Z+3	; 0x03
    1e42:	8c 93       	st	X, r24
	}
}
    1e44:	0f 90       	pop	r0
    1e46:	0f 90       	pop	r0
    1e48:	0f 90       	pop	r0
    1e4a:	0f 90       	pop	r0
    1e4c:	cf 91       	pop	r28
    1e4e:	df 91       	pop	r29
    1e50:	08 95       	ret

00001e52 <TIMER0_resetTimer>:

         /*------------------- Description --------------------
                  Function to reset timer to 0 again
          ----------------------------------------------------*/
void TIMER0_resetTimer(void)
{
    1e52:	df 93       	push	r29
    1e54:	cf 93       	push	r28
    1e56:	cd b7       	in	r28, 0x3d	; 61
    1e58:	de b7       	in	r29, 0x3e	; 62
	TCNT0 = 0;
    1e5a:	e2 e5       	ldi	r30, 0x52	; 82
    1e5c:	f0 e0       	ldi	r31, 0x00	; 0
    1e5e:	10 82       	st	Z, r1
}
    1e60:	cf 91       	pop	r28
    1e62:	df 91       	pop	r29
    1e64:	08 95       	ret

00001e66 <TIMER0_stopTimer>:

         /*------------------- Description --------------------
              Function to stop timer (Set Clock to NO_CLOCK)
          ----------------------------------------------------*/
void TIMER0_stopTimer(void)
{
    1e66:	df 93       	push	r29
    1e68:	cf 93       	push	r28
    1e6a:	cd b7       	in	r28, 0x3d	; 61
    1e6c:	de b7       	in	r29, 0x3e	; 62
	/* Clear Clock Bits */
	TCCR0 &= 0xF8;
    1e6e:	a3 e5       	ldi	r26, 0x53	; 83
    1e70:	b0 e0       	ldi	r27, 0x00	; 0
    1e72:	e3 e5       	ldi	r30, 0x53	; 83
    1e74:	f0 e0       	ldi	r31, 0x00	; 0
    1e76:	80 81       	ld	r24, Z
    1e78:	88 7f       	andi	r24, 0xF8	; 248
    1e7a:	8c 93       	st	X, r24
}
    1e7c:	cf 91       	pop	r28
    1e7e:	df 91       	pop	r29
    1e80:	08 95       	ret

00001e82 <TIMER0_restartTimer>:

         /*------------------- Description --------------------
          Function to start timer (Set Clock to g_TIMER0_Clock)
          ----------------------------------------------------*/
void TIMER0_restartTimer(void)
{
    1e82:	df 93       	push	r29
    1e84:	cf 93       	push	r28
    1e86:	cd b7       	in	r28, 0x3d	; 61
    1e88:	de b7       	in	r29, 0x3e	; 62
	/* Clear Clock Bits */
	TCCR0 &= 0xF8 ;
    1e8a:	a3 e5       	ldi	r26, 0x53	; 83
    1e8c:	b0 e0       	ldi	r27, 0x00	; 0
    1e8e:	e3 e5       	ldi	r30, 0x53	; 83
    1e90:	f0 e0       	ldi	r31, 0x00	; 0
    1e92:	80 81       	ld	r24, Z
    1e94:	88 7f       	andi	r24, 0xF8	; 248
    1e96:	8c 93       	st	X, r24

	/* Set Clock Bits */
	TCCR0 |= (g_T0clock << CS00 ) ;
    1e98:	a3 e5       	ldi	r26, 0x53	; 83
    1e9a:	b0 e0       	ldi	r27, 0x00	; 0
    1e9c:	e3 e5       	ldi	r30, 0x53	; 83
    1e9e:	f0 e0       	ldi	r31, 0x00	; 0
    1ea0:	90 81       	ld	r25, Z
    1ea2:	80 91 26 02 	lds	r24, 0x0226
    1ea6:	89 2b       	or	r24, r25
    1ea8:	8c 93       	st	X, r24
}
    1eaa:	cf 91       	pop	r28
    1eac:	df 91       	pop	r29
    1eae:	08 95       	ret

00001eb0 <TIMER0_ticks>:

         /*------------------- Description --------------------
              Function to change compare value/duty cycle
          ----------------------------------------------------*/
void TIMER0_ticks(const uint8 Ticks)
{
    1eb0:	df 93       	push	r29
    1eb2:	cf 93       	push	r28
    1eb4:	0f 92       	push	r0
    1eb6:	cd b7       	in	r28, 0x3d	; 61
    1eb8:	de b7       	in	r29, 0x3e	; 62
    1eba:	89 83       	std	Y+1, r24	; 0x01
	OCR0 = Ticks;
    1ebc:	e1 e5       	ldi	r30, 0x51	; 81
    1ebe:	f0 e0       	ldi	r31, 0x00	; 0
    1ec0:	89 81       	ldd	r24, Y+1	; 0x01
    1ec2:	80 83       	st	Z, r24
}
    1ec4:	0f 90       	pop	r0
    1ec6:	cf 91       	pop	r28
    1ec8:	df 91       	pop	r29
    1eca:	08 95       	ret

00001ecc <TIMER0_callBack>:

         /*------------------- Description --------------------
             Function to call back function to be use in ISR
          ----------------------------------------------------*/
void TIMER0_callBack (void (*ptr)(void))
{
    1ecc:	df 93       	push	r29
    1ece:	cf 93       	push	r28
    1ed0:	00 d0       	rcall	.+0      	; 0x1ed2 <TIMER0_callBack+0x6>
    1ed2:	cd b7       	in	r28, 0x3d	; 61
    1ed4:	de b7       	in	r29, 0x3e	; 62
    1ed6:	9a 83       	std	Y+2, r25	; 0x02
    1ed8:	89 83       	std	Y+1, r24	; 0x01
	/* Save the address of the function to be Called back  in a global variable */
	g_TIMER0_callBackPtr = ptr;
    1eda:	89 81       	ldd	r24, Y+1	; 0x01
    1edc:	9a 81       	ldd	r25, Y+2	; 0x02
    1ede:	90 93 1f 02 	sts	0x021F, r25
    1ee2:	80 93 1e 02 	sts	0x021E, r24
}
    1ee6:	0f 90       	pop	r0
    1ee8:	0f 90       	pop	r0
    1eea:	cf 91       	pop	r28
    1eec:	df 91       	pop	r29
    1eee:	08 95       	ret

00001ef0 <TIMER0_deinit>:

         /*------------------- Description --------------------
             Function to call back function to be use in ISR
          ----------------------------------------------------*/
void TIMER0_deinit (void)
{
    1ef0:	df 93       	push	r29
    1ef2:	cf 93       	push	r28
    1ef4:	cd b7       	in	r28, 0x3d	; 61
    1ef6:	de b7       	in	r29, 0x3e	; 62
	TCCR0 = 0x00;
    1ef8:	e3 e5       	ldi	r30, 0x53	; 83
    1efa:	f0 e0       	ldi	r31, 0x00	; 0
    1efc:	10 82       	st	Z, r1
}
    1efe:	cf 91       	pop	r28
    1f00:	df 91       	pop	r29
    1f02:	08 95       	ret

00001f04 <TIMER2_init>:
          -  2. Configure Control Register TCCR2 depending on
                desired configurations
          -  3. Enable Interrupts depending on selected mode
          ----------------------------------------------------*/
void TIMER2_init (TIMER_ConfigType *config_ptr)
{
    1f04:	df 93       	push	r29
    1f06:	cf 93       	push	r28
    1f08:	00 d0       	rcall	.+0      	; 0x1f0a <TIMER2_init+0x6>
    1f0a:	cd b7       	in	r28, 0x3d	; 61
    1f0c:	de b7       	in	r29, 0x3e	; 62
    1f0e:	9a 83       	std	Y+2, r25	; 0x02
    1f10:	89 83       	std	Y+1, r24	; 0x01
	g_T2clock = (config_ptr ->clock);
    1f12:	e9 81       	ldd	r30, Y+1	; 0x01
    1f14:	fa 81       	ldd	r31, Y+2	; 0x02
    1f16:	80 81       	ld	r24, Z
    1f18:	80 93 28 02 	sts	0x0228, r24
	/* Set Timer initial value to 0 */
	TCNT2 = 0;
    1f1c:	e4 e4       	ldi	r30, 0x44	; 68
    1f1e:	f0 e0       	ldi	r31, 0x00	; 0
    1f20:	10 82       	st	Z, r1
-  1. FOC2 = 1 in non-PWM modes so mask it with selected mode
-  2. WGM21:0(bit3,6) Waveform generation mode
-  3. COM21:0 Compare match output mode (OC)
-  3. CS22:0 Clock Select
----------------------------------------------------*/
	TCCR2 = (((config_ptr ->mode)<<FOC2)& 0x80) | (((config_ptr ->mode)<<WGM20)& 0x40)
    1f22:	a5 e4       	ldi	r26, 0x45	; 69
    1f24:	b0 e0       	ldi	r27, 0x00	; 0
    1f26:	e9 81       	ldd	r30, Y+1	; 0x01
    1f28:	fa 81       	ldd	r31, Y+2	; 0x02
    1f2a:	81 81       	ldd	r24, Z+1	; 0x01
    1f2c:	88 2f       	mov	r24, r24
    1f2e:	90 e0       	ldi	r25, 0x00	; 0
    1f30:	96 95       	lsr	r25
    1f32:	98 2f       	mov	r25, r24
    1f34:	88 27       	eor	r24, r24
    1f36:	97 95       	ror	r25
    1f38:	87 95       	ror	r24
    1f3a:	28 2f       	mov	r18, r24
    1f3c:	e9 81       	ldd	r30, Y+1	; 0x01
    1f3e:	fa 81       	ldd	r31, Y+2	; 0x02
    1f40:	81 81       	ldd	r24, Z+1	; 0x01
    1f42:	88 2f       	mov	r24, r24
    1f44:	90 e0       	ldi	r25, 0x00	; 0
    1f46:	00 24       	eor	r0, r0
    1f48:	96 95       	lsr	r25
    1f4a:	87 95       	ror	r24
    1f4c:	07 94       	ror	r0
    1f4e:	96 95       	lsr	r25
    1f50:	87 95       	ror	r24
    1f52:	07 94       	ror	r0
    1f54:	98 2f       	mov	r25, r24
    1f56:	80 2d       	mov	r24, r0
    1f58:	80 74       	andi	r24, 0x40	; 64
    1f5a:	28 2b       	or	r18, r24
    1f5c:	e9 81       	ldd	r30, Y+1	; 0x01
    1f5e:	fa 81       	ldd	r31, Y+2	; 0x02
    1f60:	81 81       	ldd	r24, Z+1	; 0x01
    1f62:	88 2f       	mov	r24, r24
    1f64:	90 e0       	ldi	r25, 0x00	; 0
    1f66:	88 0f       	add	r24, r24
    1f68:	99 1f       	adc	r25, r25
    1f6a:	88 0f       	add	r24, r24
    1f6c:	99 1f       	adc	r25, r25
    1f6e:	88 70       	andi	r24, 0x08	; 8
    1f70:	28 2b       	or	r18, r24
    1f72:	e9 81       	ldd	r30, Y+1	; 0x01
    1f74:	fa 81       	ldd	r31, Y+2	; 0x02
    1f76:	84 81       	ldd	r24, Z+4	; 0x04
    1f78:	88 2f       	mov	r24, r24
    1f7a:	90 e0       	ldi	r25, 0x00	; 0
    1f7c:	82 95       	swap	r24
    1f7e:	92 95       	swap	r25
    1f80:	90 7f       	andi	r25, 0xF0	; 240
    1f82:	98 27       	eor	r25, r24
    1f84:	80 7f       	andi	r24, 0xF0	; 240
    1f86:	98 27       	eor	r25, r24
    1f88:	92 2f       	mov	r25, r18
    1f8a:	98 2b       	or	r25, r24
    1f8c:	e9 81       	ldd	r30, Y+1	; 0x01
    1f8e:	fa 81       	ldd	r31, Y+2	; 0x02
    1f90:	80 81       	ld	r24, Z
    1f92:	89 2b       	or	r24, r25
    1f94:	8c 93       	st	X, r24
			| (((config_ptr ->mode)<<(WGM21-1)) & 0x08)
			| ((config_ptr ->OC)<<COM20) | ((config_ptr ->clock)<<CS20);

	/* Enable Timer overflow Interrupt if NORMAL mode selected */
	if (config_ptr ->mode == NORMAL)
    1f96:	e9 81       	ldd	r30, Y+1	; 0x01
    1f98:	fa 81       	ldd	r31, Y+2	; 0x02
    1f9a:	81 81       	ldd	r24, Z+1	; 0x01
    1f9c:	88 23       	and	r24, r24
    1f9e:	41 f4       	brne	.+16     	; 0x1fb0 <TIMER2_init+0xac>
	{
		SET_BIT (TIMSK,TOIE2);                  /* Timer overflow Interrupt Enable */
    1fa0:	a7 e5       	ldi	r26, 0x57	; 87
    1fa2:	b0 e0       	ldi	r27, 0x00	; 0
    1fa4:	e7 e5       	ldi	r30, 0x57	; 87
    1fa6:	f0 e0       	ldi	r31, 0x00	; 0
    1fa8:	80 81       	ld	r24, Z
    1faa:	80 64       	ori	r24, 0x40	; 64
    1fac:	8c 93       	st	X, r24
    1fae:	2e c0       	rjmp	.+92     	; 0x200c <TIMER2_init+0x108>
	}

	/* Enable Compare match Interrupt if Compare mode selected */
	else if (config_ptr ->mode == COMP)
    1fb0:	e9 81       	ldd	r30, Y+1	; 0x01
    1fb2:	fa 81       	ldd	r31, Y+2	; 0x02
    1fb4:	81 81       	ldd	r24, Z+1	; 0x01
    1fb6:	82 30       	cpi	r24, 0x02	; 2
    1fb8:	b1 f4       	brne	.+44     	; 0x1fe6 <TIMER2_init+0xe2>
	{
		SET_BIT (TIMSK,OCIE2);
    1fba:	a7 e5       	ldi	r26, 0x57	; 87
    1fbc:	b0 e0       	ldi	r27, 0x00	; 0
    1fbe:	e7 e5       	ldi	r30, 0x57	; 87
    1fc0:	f0 e0       	ldi	r31, 0x00	; 0
    1fc2:	80 81       	ld	r24, Z
    1fc4:	80 68       	ori	r24, 0x80	; 128
    1fc6:	8c 93       	st	X, r24
		SET_BIT (DDRB,PB7);                    /* Compare match Interrupt Enable */
    1fc8:	a7 e3       	ldi	r26, 0x37	; 55
    1fca:	b0 e0       	ldi	r27, 0x00	; 0
    1fcc:	e7 e3       	ldi	r30, 0x37	; 55
    1fce:	f0 e0       	ldi	r31, 0x00	; 0
    1fd0:	80 81       	ld	r24, Z
    1fd2:	80 68       	ori	r24, 0x80	; 128
    1fd4:	8c 93       	st	X, r24
		OCR2 = (uint8)(config_ptr ->OCRValue); /* Compare Value */
    1fd6:	a3 e4       	ldi	r26, 0x43	; 67
    1fd8:	b0 e0       	ldi	r27, 0x00	; 0
    1fda:	e9 81       	ldd	r30, Y+1	; 0x01
    1fdc:	fa 81       	ldd	r31, Y+2	; 0x02
    1fde:	82 81       	ldd	r24, Z+2	; 0x02
    1fe0:	93 81       	ldd	r25, Z+3	; 0x03
    1fe2:	8c 93       	st	X, r24
    1fe4:	13 c0       	rjmp	.+38     	; 0x200c <TIMER2_init+0x108>
	}

	/* PWM mode specials */
	else if (config_ptr ->mode == PWM)
    1fe6:	e9 81       	ldd	r30, Y+1	; 0x01
    1fe8:	fa 81       	ldd	r31, Y+2	; 0x02
    1fea:	81 81       	ldd	r24, Z+1	; 0x01
    1fec:	83 30       	cpi	r24, 0x03	; 3
    1fee:	71 f4       	brne	.+28     	; 0x200c <TIMER2_init+0x108>
	{
		SET_BIT (DDRB,PB7);                     /* Configure PB7/OC2 Pin as output pin */
    1ff0:	a7 e3       	ldi	r26, 0x37	; 55
    1ff2:	b0 e0       	ldi	r27, 0x00	; 0
    1ff4:	e7 e3       	ldi	r30, 0x37	; 55
    1ff6:	f0 e0       	ldi	r31, 0x00	; 0
    1ff8:	80 81       	ld	r24, Z
    1ffa:	80 68       	ori	r24, 0x80	; 128
    1ffc:	8c 93       	st	X, r24
		OCR2 = (uint8)(config_ptr ->OCRValue); /* Duty Cycle Value */
    1ffe:	a3 e4       	ldi	r26, 0x43	; 67
    2000:	b0 e0       	ldi	r27, 0x00	; 0
    2002:	e9 81       	ldd	r30, Y+1	; 0x01
    2004:	fa 81       	ldd	r31, Y+2	; 0x02
    2006:	82 81       	ldd	r24, Z+2	; 0x02
    2008:	93 81       	ldd	r25, Z+3	; 0x03
    200a:	8c 93       	st	X, r24
	}
}
    200c:	0f 90       	pop	r0
    200e:	0f 90       	pop	r0
    2010:	cf 91       	pop	r28
    2012:	df 91       	pop	r29
    2014:	08 95       	ret

00002016 <TIMER2_resetTimer>:

         /*------------------- Description --------------------
                  Function to reset timer to 0 again
          ----------------------------------------------------*/
void TIMER2_resetTimer(void)
{
    2016:	df 93       	push	r29
    2018:	cf 93       	push	r28
    201a:	cd b7       	in	r28, 0x3d	; 61
    201c:	de b7       	in	r29, 0x3e	; 62
	TCNT2 = 0;
    201e:	e4 e4       	ldi	r30, 0x44	; 68
    2020:	f0 e0       	ldi	r31, 0x00	; 0
    2022:	10 82       	st	Z, r1
}
    2024:	cf 91       	pop	r28
    2026:	df 91       	pop	r29
    2028:	08 95       	ret

0000202a <TIMER2_stopTimer>:

         /*------------------- Description --------------------
              Function to stop timer (Set Clock to NO_CLOCK)
          ----------------------------------------------------*/
void TIMER2_stopTimer(void)
{
    202a:	df 93       	push	r29
    202c:	cf 93       	push	r28
    202e:	cd b7       	in	r28, 0x3d	; 61
    2030:	de b7       	in	r29, 0x3e	; 62
	/* Clear Clock Bits */
	TCCR2 &= 0xF8;
    2032:	a5 e4       	ldi	r26, 0x45	; 69
    2034:	b0 e0       	ldi	r27, 0x00	; 0
    2036:	e5 e4       	ldi	r30, 0x45	; 69
    2038:	f0 e0       	ldi	r31, 0x00	; 0
    203a:	80 81       	ld	r24, Z
    203c:	88 7f       	andi	r24, 0xF8	; 248
    203e:	8c 93       	st	X, r24
}
    2040:	cf 91       	pop	r28
    2042:	df 91       	pop	r29
    2044:	08 95       	ret

00002046 <TIMER2_restartTimer>:

         /*------------------- Description --------------------
          Function to start timer (Set Clock to g_TIMER2_Clock)
          ----------------------------------------------------*/
void TIMER2_restartTimer(void)
{
    2046:	df 93       	push	r29
    2048:	cf 93       	push	r28
    204a:	cd b7       	in	r28, 0x3d	; 61
    204c:	de b7       	in	r29, 0x3e	; 62
	/* Clear Clock Bits */
	TCCR2 &= 0xF8 ;
    204e:	a5 e4       	ldi	r26, 0x45	; 69
    2050:	b0 e0       	ldi	r27, 0x00	; 0
    2052:	e5 e4       	ldi	r30, 0x45	; 69
    2054:	f0 e0       	ldi	r31, 0x00	; 0
    2056:	80 81       	ld	r24, Z
    2058:	88 7f       	andi	r24, 0xF8	; 248
    205a:	8c 93       	st	X, r24

	/* Set Clock Bits */
	TCCR2 |= (g_T2clock << CS00 ) ;
    205c:	a5 e4       	ldi	r26, 0x45	; 69
    205e:	b0 e0       	ldi	r27, 0x00	; 0
    2060:	e5 e4       	ldi	r30, 0x45	; 69
    2062:	f0 e0       	ldi	r31, 0x00	; 0
    2064:	90 81       	ld	r25, Z
    2066:	80 91 28 02 	lds	r24, 0x0228
    206a:	89 2b       	or	r24, r25
    206c:	8c 93       	st	X, r24
}
    206e:	cf 91       	pop	r28
    2070:	df 91       	pop	r29
    2072:	08 95       	ret

00002074 <TIMER2_ticks>:

         /*------------------- Description --------------------
              Function to change compare value/duty cycle
          ----------------------------------------------------*/
void TIMER2_ticks(const uint8 Ticks)
{
    2074:	df 93       	push	r29
    2076:	cf 93       	push	r28
    2078:	0f 92       	push	r0
    207a:	cd b7       	in	r28, 0x3d	; 61
    207c:	de b7       	in	r29, 0x3e	; 62
    207e:	89 83       	std	Y+1, r24	; 0x01
	OCR2 = Ticks;
    2080:	e3 e4       	ldi	r30, 0x43	; 67
    2082:	f0 e0       	ldi	r31, 0x00	; 0
    2084:	89 81       	ldd	r24, Y+1	; 0x01
    2086:	80 83       	st	Z, r24
}
    2088:	0f 90       	pop	r0
    208a:	cf 91       	pop	r28
    208c:	df 91       	pop	r29
    208e:	08 95       	ret

00002090 <TIMER2_callBack>:

         /*------------------- Description --------------------
             Function to call back function to be use in ISR
          ----------------------------------------------------*/
void TIMER2_callBack (void (*ptr)(void))
{
    2090:	df 93       	push	r29
    2092:	cf 93       	push	r28
    2094:	00 d0       	rcall	.+0      	; 0x2096 <TIMER2_callBack+0x6>
    2096:	cd b7       	in	r28, 0x3d	; 61
    2098:	de b7       	in	r29, 0x3e	; 62
    209a:	9a 83       	std	Y+2, r25	; 0x02
    209c:	89 83       	std	Y+1, r24	; 0x01
	/* Save the address of the function to be Called back  in a global variable */
	g_TIMER2_callBackPtr = ptr;
    209e:	89 81       	ldd	r24, Y+1	; 0x01
    20a0:	9a 81       	ldd	r25, Y+2	; 0x02
    20a2:	90 93 21 02 	sts	0x0221, r25
    20a6:	80 93 20 02 	sts	0x0220, r24
}
    20aa:	0f 90       	pop	r0
    20ac:	0f 90       	pop	r0
    20ae:	cf 91       	pop	r28
    20b0:	df 91       	pop	r29
    20b2:	08 95       	ret

000020b4 <TIMER2_deinit>:

         /*------------------- Description --------------------
             Function to call back function to be use in ISR
          ----------------------------------------------------*/
void TIMER2_deinit (void)
{
    20b4:	df 93       	push	r29
    20b6:	cf 93       	push	r28
    20b8:	cd b7       	in	r28, 0x3d	; 61
    20ba:	de b7       	in	r29, 0x3e	; 62
	TCCR2 = 0x00;
    20bc:	e5 e4       	ldi	r30, 0x45	; 69
    20be:	f0 e0       	ldi	r31, 0x00	; 0
    20c0:	10 82       	st	Z, r1
}
    20c2:	cf 91       	pop	r28
    20c4:	df 91       	pop	r29
    20c6:	08 95       	ret

000020c8 <TIMER1_init>:
 * 	4. Set OC1A/OC1B Pin Mode in Square Mode
 * 	5. Enable the Timer Normal-Compare Interrupt.
 * 	6. Initialize TIMER1 Registers
 */
void TIMER1_init(TIMER_ConfigType *Config_ptr)
{
    20c8:	df 93       	push	r29
    20ca:	cf 93       	push	r28
    20cc:	00 d0       	rcall	.+0      	; 0x20ce <TIMER1_init+0x6>
    20ce:	cd b7       	in	r28, 0x3d	; 61
    20d0:	de b7       	in	r29, 0x3e	; 62
    20d2:	9a 83       	std	Y+2, r25	; 0x02
    20d4:	89 83       	std	Y+1, r24	; 0x01
	/* set a global variable for clock to use it in
	 * restart timer function */
	g_T1clock = Config_ptr->clock ;
    20d6:	e9 81       	ldd	r30, Y+1	; 0x01
    20d8:	fa 81       	ldd	r31, Y+2	; 0x02
    20da:	80 81       	ld	r24, Z
    20dc:	80 93 27 02 	sts	0x0227, r24

	/* Set TIMER1 In Normal Mode */
	if (Config_ptr->mode == NORMAL)
    20e0:	e9 81       	ldd	r30, Y+1	; 0x01
    20e2:	fa 81       	ldd	r31, Y+2	; 0x02
    20e4:	81 81       	ldd	r24, Z+1	; 0x01
    20e6:	88 23       	and	r24, r24
    20e8:	b1 f4       	brne	.+44     	; 0x2116 <TIMER1_init+0x4e>
	{
		/* Set Timer initial value to 0 */
		TCNT1 = 0;
    20ea:	ec e4       	ldi	r30, 0x4C	; 76
    20ec:	f0 e0       	ldi	r31, 0x00	; 0
    20ee:	11 82       	std	Z+1, r1	; 0x01
    20f0:	10 82       	st	Z, r1

		/*  Enable TIMER1 Overflow Interrupt */
		TIMSK |= (1<<TOIE1);
    20f2:	a7 e5       	ldi	r26, 0x57	; 87
    20f4:	b0 e0       	ldi	r27, 0x00	; 0
    20f6:	e7 e5       	ldi	r30, 0x57	; 87
    20f8:	f0 e0       	ldi	r31, 0x00	; 0
    20fa:	80 81       	ld	r24, Z
    20fc:	84 60       	ori	r24, 0x04	; 4
    20fe:	8c 93       	st	X, r24
		 * 4. clock 		=> CS12 & CS11 & CS10
		 * TCCR1A => COM1A1 COM1A0 COM1B1 COM1B0 FOC1A FOC1B WGM11 WGM10
		 * TCCR1B => ICNC1 ICES1  WGM13 WGM12 CS12 CS11 CS10
		 */

		TCCR1C = (1<<FOC1A) | (1<<FOC1B) | (1<<FOC1C) ;
    2100:	ea e7       	ldi	r30, 0x7A	; 122
    2102:	f0 e0       	ldi	r31, 0x00	; 0
    2104:	80 ee       	ldi	r24, 0xE0	; 224
    2106:	80 83       	st	Z, r24
		TCCR1B = ((Config_ptr->clock) << CS10) ;
    2108:	ae e4       	ldi	r26, 0x4E	; 78
    210a:	b0 e0       	ldi	r27, 0x00	; 0
    210c:	e9 81       	ldd	r30, Y+1	; 0x01
    210e:	fa 81       	ldd	r31, Y+2	; 0x02
    2110:	80 81       	ld	r24, Z
    2112:	8c 93       	st	X, r24
    2114:	58 c1       	rjmp	.+688    	; 0x23c6 <TIMER1_init+0x2fe>
	}

	/* Set TIMER1 In Compare Mode with OCR1A Value */
	else if (Config_ptr->mode == COMP)
    2116:	e9 81       	ldd	r30, Y+1	; 0x01
    2118:	fa 81       	ldd	r31, Y+2	; 0x02
    211a:	81 81       	ldd	r24, Z+1	; 0x01
    211c:	82 30       	cpi	r24, 0x02	; 2
    211e:	09 f0       	breq	.+2      	; 0x2122 <TIMER1_init+0x5a>
    2120:	63 c0       	rjmp	.+198    	; 0x21e8 <TIMER1_init+0x120>
	{

		/* Channels interrupt Enable */
		TIMSK |= (1 << OCIE1A) | (1 << OCIE1B) | (1 << OCIE1C);
    2122:	a7 e5       	ldi	r26, 0x57	; 87
    2124:	b0 e0       	ldi	r27, 0x00	; 0
    2126:	e7 e5       	ldi	r30, 0x57	; 87
    2128:	f0 e0       	ldi	r31, 0x00	; 0
    212a:	80 81       	ld	r24, Z
    212c:	89 61       	ori	r24, 0x19	; 25
    212e:	8c 93       	st	X, r24

		/* Initial Value of The Timer TCNT*/
		TCNT1 = 0;
    2130:	ec e4       	ldi	r30, 0x4C	; 76
    2132:	f0 e0       	ldi	r31, 0x00	; 0
    2134:	11 82       	std	Z+1, r1	; 0x01
    2136:	10 82       	st	Z, r1

		/* Compare Value for Channel A */
		OCR1A = Config_ptr->OCRValue;
    2138:	aa e4       	ldi	r26, 0x4A	; 74
    213a:	b0 e0       	ldi	r27, 0x00	; 0
    213c:	e9 81       	ldd	r30, Y+1	; 0x01
    213e:	fa 81       	ldd	r31, Y+2	; 0x02
    2140:	82 81       	ldd	r24, Z+2	; 0x02
    2142:	93 81       	ldd	r25, Z+3	; 0x03
    2144:	11 96       	adiw	r26, 0x01	; 1
    2146:	9c 93       	st	X, r25
    2148:	8e 93       	st	-X, r24
		/* Compare Value for Channel B */
		OCR1B = Config_ptr->OCR1BValue;
    214a:	a8 e4       	ldi	r26, 0x48	; 72
    214c:	b0 e0       	ldi	r27, 0x00	; 0
    214e:	e9 81       	ldd	r30, Y+1	; 0x01
    2150:	fa 81       	ldd	r31, Y+2	; 0x02
    2152:	85 81       	ldd	r24, Z+5	; 0x05
    2154:	96 81       	ldd	r25, Z+6	; 0x06
    2156:	11 96       	adiw	r26, 0x01	; 1
    2158:	9c 93       	st	X, r25
    215a:	8e 93       	st	-X, r24
		/* Compare Value for Channel C */
		OCR1C = Config_ptr->OCR1CValue;
    215c:	a8 e7       	ldi	r26, 0x78	; 120
    215e:	b0 e0       	ldi	r27, 0x00	; 0
    2160:	e9 81       	ldd	r30, Y+1	; 0x01
    2162:	fa 81       	ldd	r31, Y+2	; 0x02
    2164:	80 85       	ldd	r24, Z+8	; 0x08
    2166:	91 85       	ldd	r25, Z+9	; 0x09
    2168:	11 96       	adiw	r26, 0x01	; 1
    216a:	9c 93       	st	X, r25
    216c:	8e 93       	st	-X, r24
		/* using ICR1 as Top Value for Duty Cycle for all Channels
		 * Duty Cycle for PWM Mode = OCR1x/ICR1 */
		ICR1 = Config_ptr->ICR1Value;
    216e:	a6 e4       	ldi	r26, 0x46	; 70
    2170:	b0 e0       	ldi	r27, 0x00	; 0
    2172:	e9 81       	ldd	r30, Y+1	; 0x01
    2174:	fa 81       	ldd	r31, Y+2	; 0x02
    2176:	83 85       	ldd	r24, Z+11	; 0x0b
    2178:	94 85       	ldd	r25, Z+12	; 0x0c
    217a:	11 96       	adiw	r26, 0x01	; 1
    217c:	9c 93       	st	X, r25
    217e:	8e 93       	st	-X, r24
		 * TCCR1A => COM1A1 COM1A0 COM1B1 COM1B0 COM1C1 COM1C0 WGM11 WGM10
		 * TCCR1B => ICNC1 ICES1  WGM13 WGM12 CS12 CS11 CS10
		 * TCCR1C => FOC1A FOC1B FOC1C
		 */

		TCCR1A = ((Config_ptr->OC) << COM1A0) | ((Config_ptr->OC1B) << COM1B0)
    2180:	af e4       	ldi	r26, 0x4F	; 79
    2182:	b0 e0       	ldi	r27, 0x00	; 0
    2184:	e9 81       	ldd	r30, Y+1	; 0x01
    2186:	fa 81       	ldd	r31, Y+2	; 0x02
    2188:	84 81       	ldd	r24, Z+4	; 0x04
    218a:	88 2f       	mov	r24, r24
    218c:	90 e0       	ldi	r25, 0x00	; 0
    218e:	00 24       	eor	r0, r0
    2190:	96 95       	lsr	r25
    2192:	87 95       	ror	r24
    2194:	07 94       	ror	r0
    2196:	96 95       	lsr	r25
    2198:	87 95       	ror	r24
    219a:	07 94       	ror	r0
    219c:	98 2f       	mov	r25, r24
    219e:	80 2d       	mov	r24, r0
    21a0:	28 2f       	mov	r18, r24
    21a2:	e9 81       	ldd	r30, Y+1	; 0x01
    21a4:	fa 81       	ldd	r31, Y+2	; 0x02
    21a6:	87 81       	ldd	r24, Z+7	; 0x07
    21a8:	88 2f       	mov	r24, r24
    21aa:	90 e0       	ldi	r25, 0x00	; 0
    21ac:	82 95       	swap	r24
    21ae:	92 95       	swap	r25
    21b0:	90 7f       	andi	r25, 0xF0	; 240
    21b2:	98 27       	eor	r25, r24
    21b4:	80 7f       	andi	r24, 0xF0	; 240
    21b6:	98 27       	eor	r25, r24
    21b8:	28 2b       	or	r18, r24
    21ba:	e9 81       	ldd	r30, Y+1	; 0x01
    21bc:	fa 81       	ldd	r31, Y+2	; 0x02
    21be:	82 85       	ldd	r24, Z+10	; 0x0a
    21c0:	88 2f       	mov	r24, r24
    21c2:	90 e0       	ldi	r25, 0x00	; 0
    21c4:	88 0f       	add	r24, r24
    21c6:	99 1f       	adc	r25, r25
    21c8:	88 0f       	add	r24, r24
    21ca:	99 1f       	adc	r25, r25
    21cc:	82 2b       	or	r24, r18
    21ce:	8c 93       	st	X, r24
				| ((Config_ptr->OC1C) << COM1C0);
		TCCR1B = (1 << WGM12) | ((Config_ptr->clock) << CS10);
    21d0:	ae e4       	ldi	r26, 0x4E	; 78
    21d2:	b0 e0       	ldi	r27, 0x00	; 0
    21d4:	e9 81       	ldd	r30, Y+1	; 0x01
    21d6:	fa 81       	ldd	r31, Y+2	; 0x02
    21d8:	80 81       	ld	r24, Z
    21da:	88 60       	ori	r24, 0x08	; 8
    21dc:	8c 93       	st	X, r24
		TCCR1C = (1 << FOC1A) | (1 << FOC1B) | (1 << FOC1C);
    21de:	ea e7       	ldi	r30, 0x7A	; 122
    21e0:	f0 e0       	ldi	r31, 0x00	; 0
    21e2:	80 ee       	ldi	r24, 0xE0	; 224
    21e4:	80 83       	st	Z, r24
    21e6:	ef c0       	rjmp	.+478    	; 0x23c6 <TIMER1_init+0x2fe>
	}

	/* Set TIMER1 In CTC Square Wave Mode */
	else if (Config_ptr->mode == CTC)
    21e8:	e9 81       	ldd	r30, Y+1	; 0x01
    21ea:	fa 81       	ldd	r31, Y+2	; 0x02
    21ec:	81 81       	ldd	r24, Z+1	; 0x01
    21ee:	81 30       	cpi	r24, 0x01	; 1
    21f0:	09 f0       	breq	.+2      	; 0x21f4 <TIMER1_init+0x12c>
    21f2:	6f c0       	rjmp	.+222    	; 0x22d2 <TIMER1_init+0x20a>
	{
		/* Set pin PB5/OC1A as output pin */
		SET_BIT (DDRB,PB5);
    21f4:	a7 e3       	ldi	r26, 0x37	; 55
    21f6:	b0 e0       	ldi	r27, 0x00	; 0
    21f8:	e7 e3       	ldi	r30, 0x37	; 55
    21fa:	f0 e0       	ldi	r31, 0x00	; 0
    21fc:	80 81       	ld	r24, Z
    21fe:	80 62       	ori	r24, 0x20	; 32
    2200:	8c 93       	st	X, r24
		/* Set pin PB6/OC1B as output pin */
		SET_BIT (DDRB,PB6);
    2202:	a7 e3       	ldi	r26, 0x37	; 55
    2204:	b0 e0       	ldi	r27, 0x00	; 0
    2206:	e7 e3       	ldi	r30, 0x37	; 55
    2208:	f0 e0       	ldi	r31, 0x00	; 0
    220a:	80 81       	ld	r24, Z
    220c:	80 64       	ori	r24, 0x40	; 64
    220e:	8c 93       	st	X, r24
		/* Set pin PB7/OC1A/OC2 as output pin */
		SET_BIT (DDRB,PB7);
    2210:	a7 e3       	ldi	r26, 0x37	; 55
    2212:	b0 e0       	ldi	r27, 0x00	; 0
    2214:	e7 e3       	ldi	r30, 0x37	; 55
    2216:	f0 e0       	ldi	r31, 0x00	; 0
    2218:	80 81       	ld	r24, Z
    221a:	80 68       	ori	r24, 0x80	; 128
    221c:	8c 93       	st	X, r24

		/* Channels interrupt Enable */
		TIMSK |= (1<<OCIE1A) | (1<<OCIE1B) | (1<<OCIE1C);
    221e:	a7 e5       	ldi	r26, 0x57	; 87
    2220:	b0 e0       	ldi	r27, 0x00	; 0
    2222:	e7 e5       	ldi	r30, 0x57	; 87
    2224:	f0 e0       	ldi	r31, 0x00	; 0
    2226:	80 81       	ld	r24, Z
    2228:	89 61       	ori	r24, 0x19	; 25
    222a:	8c 93       	st	X, r24

		/* Initial Value of The Timer TCNT*/
		TCNT1 = 0 ;
    222c:	ec e4       	ldi	r30, 0x4C	; 76
    222e:	f0 e0       	ldi	r31, 0x00	; 0
    2230:	11 82       	std	Z+1, r1	; 0x01
    2232:	10 82       	st	Z, r1

		/* Compare Value for Channel A */
		OCR1A = Config_ptr->OCRValue ;
    2234:	aa e4       	ldi	r26, 0x4A	; 74
    2236:	b0 e0       	ldi	r27, 0x00	; 0
    2238:	e9 81       	ldd	r30, Y+1	; 0x01
    223a:	fa 81       	ldd	r31, Y+2	; 0x02
    223c:	82 81       	ldd	r24, Z+2	; 0x02
    223e:	93 81       	ldd	r25, Z+3	; 0x03
    2240:	11 96       	adiw	r26, 0x01	; 1
    2242:	9c 93       	st	X, r25
    2244:	8e 93       	st	-X, r24
		/* Compare Value for Channel B */
		OCR1B = Config_ptr->OCR1BValue;
    2246:	a8 e4       	ldi	r26, 0x48	; 72
    2248:	b0 e0       	ldi	r27, 0x00	; 0
    224a:	e9 81       	ldd	r30, Y+1	; 0x01
    224c:	fa 81       	ldd	r31, Y+2	; 0x02
    224e:	85 81       	ldd	r24, Z+5	; 0x05
    2250:	96 81       	ldd	r25, Z+6	; 0x06
    2252:	11 96       	adiw	r26, 0x01	; 1
    2254:	9c 93       	st	X, r25
    2256:	8e 93       	st	-X, r24
		/* Compare Value for Channel C */
		OCR1C = Config_ptr->OCR1CValue;
    2258:	a8 e7       	ldi	r26, 0x78	; 120
    225a:	b0 e0       	ldi	r27, 0x00	; 0
    225c:	e9 81       	ldd	r30, Y+1	; 0x01
    225e:	fa 81       	ldd	r31, Y+2	; 0x02
    2260:	80 85       	ldd	r24, Z+8	; 0x08
    2262:	91 85       	ldd	r25, Z+9	; 0x09
    2264:	11 96       	adiw	r26, 0x01	; 1
    2266:	9c 93       	st	X, r25
    2268:	8e 93       	st	-X, r24
		 * TCCR1A => COM1A1 COM1A0 COM1B1 COM1B0 COM1C1 COM1C0 WGM11 WGM10
		 * TCCR1B => ICNC1 ICES1  WGM13 WGM12 CS12 CS11 CS10
		 * TCCR1C => FOC1A FOC1B FOC1C
		 */

		TCCR1A = ((Config_ptr->OC) << COM1A0) | ((Config_ptr->OC1B) << COM1B0) | ((Config_ptr->OC1C) << COM1C0);
    226a:	af e4       	ldi	r26, 0x4F	; 79
    226c:	b0 e0       	ldi	r27, 0x00	; 0
    226e:	e9 81       	ldd	r30, Y+1	; 0x01
    2270:	fa 81       	ldd	r31, Y+2	; 0x02
    2272:	84 81       	ldd	r24, Z+4	; 0x04
    2274:	88 2f       	mov	r24, r24
    2276:	90 e0       	ldi	r25, 0x00	; 0
    2278:	00 24       	eor	r0, r0
    227a:	96 95       	lsr	r25
    227c:	87 95       	ror	r24
    227e:	07 94       	ror	r0
    2280:	96 95       	lsr	r25
    2282:	87 95       	ror	r24
    2284:	07 94       	ror	r0
    2286:	98 2f       	mov	r25, r24
    2288:	80 2d       	mov	r24, r0
    228a:	28 2f       	mov	r18, r24
    228c:	e9 81       	ldd	r30, Y+1	; 0x01
    228e:	fa 81       	ldd	r31, Y+2	; 0x02
    2290:	87 81       	ldd	r24, Z+7	; 0x07
    2292:	88 2f       	mov	r24, r24
    2294:	90 e0       	ldi	r25, 0x00	; 0
    2296:	82 95       	swap	r24
    2298:	92 95       	swap	r25
    229a:	90 7f       	andi	r25, 0xF0	; 240
    229c:	98 27       	eor	r25, r24
    229e:	80 7f       	andi	r24, 0xF0	; 240
    22a0:	98 27       	eor	r25, r24
    22a2:	28 2b       	or	r18, r24
    22a4:	e9 81       	ldd	r30, Y+1	; 0x01
    22a6:	fa 81       	ldd	r31, Y+2	; 0x02
    22a8:	82 85       	ldd	r24, Z+10	; 0x0a
    22aa:	88 2f       	mov	r24, r24
    22ac:	90 e0       	ldi	r25, 0x00	; 0
    22ae:	88 0f       	add	r24, r24
    22b0:	99 1f       	adc	r25, r25
    22b2:	88 0f       	add	r24, r24
    22b4:	99 1f       	adc	r25, r25
    22b6:	82 2b       	or	r24, r18
    22b8:	8c 93       	st	X, r24
		TCCR1B = (1<<WGM12) | ((Config_ptr->clock) << CS10) ;
    22ba:	ae e4       	ldi	r26, 0x4E	; 78
    22bc:	b0 e0       	ldi	r27, 0x00	; 0
    22be:	e9 81       	ldd	r30, Y+1	; 0x01
    22c0:	fa 81       	ldd	r31, Y+2	; 0x02
    22c2:	80 81       	ld	r24, Z
    22c4:	88 60       	ori	r24, 0x08	; 8
    22c6:	8c 93       	st	X, r24
		TCCR1C = (1<<FOC1A) | (1<<FOC1B) | (1<<FOC1C);
    22c8:	ea e7       	ldi	r30, 0x7A	; 122
    22ca:	f0 e0       	ldi	r31, 0x00	; 0
    22cc:	80 ee       	ldi	r24, 0xE0	; 224
    22ce:	80 83       	st	Z, r24
    22d0:	7a c0       	rjmp	.+244    	; 0x23c6 <TIMER1_init+0x2fe>
	}

	/* Set TIMER1 In PWM Mode with Duty Cycle */
	else if (Config_ptr->mode == PWM)
    22d2:	e9 81       	ldd	r30, Y+1	; 0x01
    22d4:	fa 81       	ldd	r31, Y+2	; 0x02
    22d6:	81 81       	ldd	r24, Z+1	; 0x01
    22d8:	83 30       	cpi	r24, 0x03	; 3
    22da:	09 f0       	breq	.+2      	; 0x22de <TIMER1_init+0x216>
    22dc:	74 c0       	rjmp	.+232    	; 0x23c6 <TIMER1_init+0x2fe>
	{
		/* Set pin PB5/OC1A as output pin */
		SET_BIT (DDRB,PB5);
    22de:	a7 e3       	ldi	r26, 0x37	; 55
    22e0:	b0 e0       	ldi	r27, 0x00	; 0
    22e2:	e7 e3       	ldi	r30, 0x37	; 55
    22e4:	f0 e0       	ldi	r31, 0x00	; 0
    22e6:	80 81       	ld	r24, Z
    22e8:	80 62       	ori	r24, 0x20	; 32
    22ea:	8c 93       	st	X, r24
		/* Set pin PB6/OC1B as output pin */
		SET_BIT (DDRB,PB6);
    22ec:	a7 e3       	ldi	r26, 0x37	; 55
    22ee:	b0 e0       	ldi	r27, 0x00	; 0
    22f0:	e7 e3       	ldi	r30, 0x37	; 55
    22f2:	f0 e0       	ldi	r31, 0x00	; 0
    22f4:	80 81       	ld	r24, Z
    22f6:	80 64       	ori	r24, 0x40	; 64
    22f8:	8c 93       	st	X, r24
		/* Set pin PB7/OC1A/OC2 as output pin */
		SET_BIT (DDRB,PB7);
    22fa:	a7 e3       	ldi	r26, 0x37	; 55
    22fc:	b0 e0       	ldi	r27, 0x00	; 0
    22fe:	e7 e3       	ldi	r30, 0x37	; 55
    2300:	f0 e0       	ldi	r31, 0x00	; 0
    2302:	80 81       	ld	r24, Z
    2304:	80 68       	ori	r24, 0x80	; 128
    2306:	8c 93       	st	X, r24

		/* Initial Value of The Timer TCNT*/
		TCNT1 = 0 ;
    2308:	ec e4       	ldi	r30, 0x4C	; 76
    230a:	f0 e0       	ldi	r31, 0x00	; 0
    230c:	11 82       	std	Z+1, r1	; 0x01
    230e:	10 82       	st	Z, r1

		TIMSK |= (1<<OCIE1A) | (1<<OCIE1B) | (1<<OCIE1C);
    2310:	a7 e5       	ldi	r26, 0x57	; 87
    2312:	b0 e0       	ldi	r27, 0x00	; 0
    2314:	e7 e5       	ldi	r30, 0x57	; 87
    2316:	f0 e0       	ldi	r31, 0x00	; 0
    2318:	80 81       	ld	r24, Z
    231a:	89 61       	ori	r24, 0x19	; 25
    231c:	8c 93       	st	X, r24

		/* Duty Cycle Value for Channel A */
		OCR1A = Config_ptr->OCRValue;
    231e:	aa e4       	ldi	r26, 0x4A	; 74
    2320:	b0 e0       	ldi	r27, 0x00	; 0
    2322:	e9 81       	ldd	r30, Y+1	; 0x01
    2324:	fa 81       	ldd	r31, Y+2	; 0x02
    2326:	82 81       	ldd	r24, Z+2	; 0x02
    2328:	93 81       	ldd	r25, Z+3	; 0x03
    232a:	11 96       	adiw	r26, 0x01	; 1
    232c:	9c 93       	st	X, r25
    232e:	8e 93       	st	-X, r24
		/* Duty Cycle Value for Channel B */
		OCR1B = Config_ptr->OCR1BValue;
    2330:	a8 e4       	ldi	r26, 0x48	; 72
    2332:	b0 e0       	ldi	r27, 0x00	; 0
    2334:	e9 81       	ldd	r30, Y+1	; 0x01
    2336:	fa 81       	ldd	r31, Y+2	; 0x02
    2338:	85 81       	ldd	r24, Z+5	; 0x05
    233a:	96 81       	ldd	r25, Z+6	; 0x06
    233c:	11 96       	adiw	r26, 0x01	; 1
    233e:	9c 93       	st	X, r25
    2340:	8e 93       	st	-X, r24
		/* Duty Cycle Value for Channel C */
		OCR1C = Config_ptr->OCR1CValue;
    2342:	a8 e7       	ldi	r26, 0x78	; 120
    2344:	b0 e0       	ldi	r27, 0x00	; 0
    2346:	e9 81       	ldd	r30, Y+1	; 0x01
    2348:	fa 81       	ldd	r31, Y+2	; 0x02
    234a:	80 85       	ldd	r24, Z+8	; 0x08
    234c:	91 85       	ldd	r25, Z+9	; 0x09
    234e:	11 96       	adiw	r26, 0x01	; 1
    2350:	9c 93       	st	X, r25
    2352:	8e 93       	st	-X, r24

		/* using ICR1 as Top Value for Duty Cycle for all Channels
		 * Duty Cycle for PWM Mode = OCR1x/ICR1 */
		ICR1 = Config_ptr->ICR1Value;
    2354:	a6 e4       	ldi	r26, 0x46	; 70
    2356:	b0 e0       	ldi	r27, 0x00	; 0
    2358:	e9 81       	ldd	r30, Y+1	; 0x01
    235a:	fa 81       	ldd	r31, Y+2	; 0x02
    235c:	83 85       	ldd	r24, Z+11	; 0x0b
    235e:	94 85       	ldd	r25, Z+12	; 0x0c
    2360:	11 96       	adiw	r26, 0x01	; 1
    2362:	9c 93       	st	X, r25
    2364:	8e 93       	st	-X, r24
		 * 4. clock 		=> CS12 & CS11 & CS10
		 * TCCR1A => COM1A1 COM1A0 COM1B1 COM1B0 COM1C1 COM1C0 WGM11 WGM10
		 * TCCR1B => ICNC1 ICES1  WGM13 WGM12 CS12 CS11 CS10
		 *
		 */
		TCCR1A = ((Config_ptr->OC) << COM1A0) | ((Config_ptr->OC1B) << COM1B0)
    2366:	af e4       	ldi	r26, 0x4F	; 79
    2368:	b0 e0       	ldi	r27, 0x00	; 0
    236a:	e9 81       	ldd	r30, Y+1	; 0x01
    236c:	fa 81       	ldd	r31, Y+2	; 0x02
    236e:	84 81       	ldd	r24, Z+4	; 0x04
    2370:	88 2f       	mov	r24, r24
    2372:	90 e0       	ldi	r25, 0x00	; 0
    2374:	00 24       	eor	r0, r0
    2376:	96 95       	lsr	r25
    2378:	87 95       	ror	r24
    237a:	07 94       	ror	r0
    237c:	96 95       	lsr	r25
    237e:	87 95       	ror	r24
    2380:	07 94       	ror	r0
    2382:	98 2f       	mov	r25, r24
    2384:	80 2d       	mov	r24, r0
    2386:	28 2f       	mov	r18, r24
    2388:	e9 81       	ldd	r30, Y+1	; 0x01
    238a:	fa 81       	ldd	r31, Y+2	; 0x02
    238c:	87 81       	ldd	r24, Z+7	; 0x07
    238e:	88 2f       	mov	r24, r24
    2390:	90 e0       	ldi	r25, 0x00	; 0
    2392:	82 95       	swap	r24
    2394:	92 95       	swap	r25
    2396:	90 7f       	andi	r25, 0xF0	; 240
    2398:	98 27       	eor	r25, r24
    239a:	80 7f       	andi	r24, 0xF0	; 240
    239c:	98 27       	eor	r25, r24
    239e:	28 2b       	or	r18, r24
    23a0:	e9 81       	ldd	r30, Y+1	; 0x01
    23a2:	fa 81       	ldd	r31, Y+2	; 0x02
    23a4:	82 85       	ldd	r24, Z+10	; 0x0a
    23a6:	88 2f       	mov	r24, r24
    23a8:	90 e0       	ldi	r25, 0x00	; 0
    23aa:	88 0f       	add	r24, r24
    23ac:	99 1f       	adc	r25, r25
    23ae:	88 0f       	add	r24, r24
    23b0:	99 1f       	adc	r25, r25
    23b2:	82 2b       	or	r24, r18
    23b4:	82 60       	ori	r24, 0x02	; 2
    23b6:	8c 93       	st	X, r24
				|((Config_ptr->OC1C) << COM1C0) | (1<<WGM11);

		TCCR1B = (1<<WGM13) | (1<<WGM12) | ((Config_ptr->clock) << CS10) ;
    23b8:	ae e4       	ldi	r26, 0x4E	; 78
    23ba:	b0 e0       	ldi	r27, 0x00	; 0
    23bc:	e9 81       	ldd	r30, Y+1	; 0x01
    23be:	fa 81       	ldd	r31, Y+2	; 0x02
    23c0:	80 81       	ld	r24, Z
    23c2:	88 61       	ori	r24, 0x18	; 24
    23c4:	8c 93       	st	X, r24
	}
}
    23c6:	0f 90       	pop	r0
    23c8:	0f 90       	pop	r0
    23ca:	cf 91       	pop	r28
    23cc:	df 91       	pop	r29
    23ce:	08 95       	ret

000023d0 <TIMER1_resetTimer>:

/*
 * Description: Function to clear the TIMER1 Value to start count from ZERO
 */
void TIMER1_resetTimer(void)
{
    23d0:	df 93       	push	r29
    23d2:	cf 93       	push	r28
    23d4:	cd b7       	in	r28, 0x3d	; 61
    23d6:	de b7       	in	r29, 0x3e	; 62
	TCNT1 = 0;
    23d8:	ec e4       	ldi	r30, 0x4C	; 76
    23da:	f0 e0       	ldi	r31, 0x00	; 0
    23dc:	11 82       	std	Z+1, r1	; 0x01
    23de:	10 82       	st	Z, r1
}
    23e0:	cf 91       	pop	r28
    23e2:	df 91       	pop	r29
    23e4:	08 95       	ret

000023e6 <TIMER1_stopTimer>:
 * Description: Function to Stop the TIMER1
 * CLEAR CS12 CS11 CS10
 * TCCR1B => ICNC1 ICES1  WGM13 WGM12 CS12 CS11 CS10
 */
void TIMER1_stopTimer(void)
{
    23e6:	df 93       	push	r29
    23e8:	cf 93       	push	r28
    23ea:	cd b7       	in	r28, 0x3d	; 61
    23ec:	de b7       	in	r29, 0x3e	; 62
	/* Clear Clock Bits */
	TCCR1B &= 0xF8 ;
    23ee:	ae e4       	ldi	r26, 0x4E	; 78
    23f0:	b0 e0       	ldi	r27, 0x00	; 0
    23f2:	ee e4       	ldi	r30, 0x4E	; 78
    23f4:	f0 e0       	ldi	r31, 0x00	; 0
    23f6:	80 81       	ld	r24, Z
    23f8:	88 7f       	andi	r24, 0xF8	; 248
    23fa:	8c 93       	st	X, r24
}
    23fc:	cf 91       	pop	r28
    23fe:	df 91       	pop	r29
    2400:	08 95       	ret

00002402 <TIMER1_restartTimer>:
 * Description: Function to Restart the TIMER1
 * CLEAR CS12 CS11 CS10
 * TCCR1B => ICNC1 ICES1  WGM13 WGM12 CS12 CS11 CS10
 */
void TIMER1_restartTimer(void)
{
    2402:	df 93       	push	r29
    2404:	cf 93       	push	r28
    2406:	cd b7       	in	r28, 0x3d	; 61
    2408:	de b7       	in	r29, 0x3e	; 62
	/* Clear Clock Bits */
	TCCR1B &= 0xF8 ;
    240a:	ae e4       	ldi	r26, 0x4E	; 78
    240c:	b0 e0       	ldi	r27, 0x00	; 0
    240e:	ee e4       	ldi	r30, 0x4E	; 78
    2410:	f0 e0       	ldi	r31, 0x00	; 0
    2412:	80 81       	ld	r24, Z
    2414:	88 7f       	andi	r24, 0xF8	; 248
    2416:	8c 93       	st	X, r24

	/* Set Clock Bits */
	TCCR1B |= ( g_T1clock << CS10) ;
    2418:	ae e4       	ldi	r26, 0x4E	; 78
    241a:	b0 e0       	ldi	r27, 0x00	; 0
    241c:	ee e4       	ldi	r30, 0x4E	; 78
    241e:	f0 e0       	ldi	r31, 0x00	; 0
    2420:	90 81       	ld	r25, Z
    2422:	80 91 27 02 	lds	r24, 0x0227
    2426:	89 2b       	or	r24, r25
    2428:	8c 93       	st	X, r24
}
    242a:	cf 91       	pop	r28
    242c:	df 91       	pop	r29
    242e:	08 95       	ret

00002430 <TIMER1_Ticks>:
/*
 * Description: Function to Change Ticks (Compare Value) of Timer
 * 				using also to Change Duty Cycle in PWM Mode
 */
void TIMER1_Ticks(const uint16 Ticks1A, const uint16 Ticks1B)
{
    2430:	df 93       	push	r29
    2432:	cf 93       	push	r28
    2434:	00 d0       	rcall	.+0      	; 0x2436 <TIMER1_Ticks+0x6>
    2436:	00 d0       	rcall	.+0      	; 0x2438 <TIMER1_Ticks+0x8>
    2438:	cd b7       	in	r28, 0x3d	; 61
    243a:	de b7       	in	r29, 0x3e	; 62
    243c:	9a 83       	std	Y+2, r25	; 0x02
    243e:	89 83       	std	Y+1, r24	; 0x01
    2440:	7c 83       	std	Y+4, r23	; 0x04
    2442:	6b 83       	std	Y+3, r22	; 0x03
	OCR1A = Ticks1A;
    2444:	ea e4       	ldi	r30, 0x4A	; 74
    2446:	f0 e0       	ldi	r31, 0x00	; 0
    2448:	89 81       	ldd	r24, Y+1	; 0x01
    244a:	9a 81       	ldd	r25, Y+2	; 0x02
    244c:	91 83       	std	Z+1, r25	; 0x01
    244e:	80 83       	st	Z, r24
	OCR1B = Ticks1B;
    2450:	e8 e4       	ldi	r30, 0x48	; 72
    2452:	f0 e0       	ldi	r31, 0x00	; 0
    2454:	8b 81       	ldd	r24, Y+3	; 0x03
    2456:	9c 81       	ldd	r25, Y+4	; 0x04
    2458:	91 83       	std	Z+1, r25	; 0x01
    245a:	80 83       	st	Z, r24
}
    245c:	0f 90       	pop	r0
    245e:	0f 90       	pop	r0
    2460:	0f 90       	pop	r0
    2462:	0f 90       	pop	r0
    2464:	cf 91       	pop	r28
    2466:	df 91       	pop	r29
    2468:	08 95       	ret

0000246a <TIMER1_setCallBack>:

/*
 * Description: Function to set the Call Back function address for TIMER2 .
 */
void TIMER1_setCallBack(void(*a_ptr)(void))
{
    246a:	df 93       	push	r29
    246c:	cf 93       	push	r28
    246e:	00 d0       	rcall	.+0      	; 0x2470 <TIMER1_setCallBack+0x6>
    2470:	cd b7       	in	r28, 0x3d	; 61
    2472:	de b7       	in	r29, 0x3e	; 62
    2474:	9a 83       	std	Y+2, r25	; 0x02
    2476:	89 83       	std	Y+1, r24	; 0x01
	/* Save the address of the Call back function in a global variable */
	g_TIMER1_callBackPtr = a_ptr;
    2478:	89 81       	ldd	r24, Y+1	; 0x01
    247a:	9a 81       	ldd	r25, Y+2	; 0x02
    247c:	90 93 23 02 	sts	0x0223, r25
    2480:	80 93 22 02 	sts	0x0222, r24
}
    2484:	0f 90       	pop	r0
    2486:	0f 90       	pop	r0
    2488:	cf 91       	pop	r28
    248a:	df 91       	pop	r29
    248c:	08 95       	ret

0000248e <TIMER1_deinit>:

         /*------------------- Description --------------------
           Function to cancel the initializations of the timer
          ----------------------------------------------------*/
void TIMER1_deinit (void)
{
    248e:	df 93       	push	r29
    2490:	cf 93       	push	r28
    2492:	cd b7       	in	r28, 0x3d	; 61
    2494:	de b7       	in	r29, 0x3e	; 62
	TCCR1A = 0x00;
    2496:	ef e4       	ldi	r30, 0x4F	; 79
    2498:	f0 e0       	ldi	r31, 0x00	; 0
    249a:	10 82       	st	Z, r1
	TCCR1B = 0x00;
    249c:	ee e4       	ldi	r30, 0x4E	; 78
    249e:	f0 e0       	ldi	r31, 0x00	; 0
    24a0:	10 82       	st	Z, r1
	TCCR1C = 0x00;
    24a2:	ea e7       	ldi	r30, 0x7A	; 122
    24a4:	f0 e0       	ldi	r31, 0x00	; 0
    24a6:	10 82       	st	Z, r1
}
    24a8:	cf 91       	pop	r28
    24aa:	df 91       	pop	r29
    24ac:	08 95       	ret

000024ae <TIMER3_init>:
 * 	4. Set OC1A/OC1B Pin Mode in Square Mode
 * 	5. Enable the Timer Normal-Compare Interrupt.
 * 	6. Initialize TIMER1 Registers
 */
void TIMER3_init(TIMER_ConfigType *Config_ptr)
{
    24ae:	df 93       	push	r29
    24b0:	cf 93       	push	r28
    24b2:	00 d0       	rcall	.+0      	; 0x24b4 <TIMER3_init+0x6>
    24b4:	cd b7       	in	r28, 0x3d	; 61
    24b6:	de b7       	in	r29, 0x3e	; 62
    24b8:	9a 83       	std	Y+2, r25	; 0x02
    24ba:	89 83       	std	Y+1, r24	; 0x01
	/* set a global variable for clock to use it in
	 * restart timer function */
	g_T3clock = Config_ptr->clock ;
    24bc:	e9 81       	ldd	r30, Y+1	; 0x01
    24be:	fa 81       	ldd	r31, Y+2	; 0x02
    24c0:	80 81       	ld	r24, Z
    24c2:	80 93 29 02 	sts	0x0229, r24

	/* Set TIMER1 In Normal Mode */
	if (Config_ptr->mode == NORMAL)
    24c6:	e9 81       	ldd	r30, Y+1	; 0x01
    24c8:	fa 81       	ldd	r31, Y+2	; 0x02
    24ca:	81 81       	ldd	r24, Z+1	; 0x01
    24cc:	88 23       	and	r24, r24
    24ce:	b1 f4       	brne	.+44     	; 0x24fc <TIMER3_init+0x4e>
	{
		/* Set Timer initial value to 0 */
		TCNT3 = 0;
    24d0:	e8 e8       	ldi	r30, 0x88	; 136
    24d2:	f0 e0       	ldi	r31, 0x00	; 0
    24d4:	11 82       	std	Z+1, r1	; 0x01
    24d6:	10 82       	st	Z, r1

		/*  Enable TIMER3 Overflow Interrupt */
		TIMSK |= (1<<TOIE3);
    24d8:	a7 e5       	ldi	r26, 0x57	; 87
    24da:	b0 e0       	ldi	r27, 0x00	; 0
    24dc:	e7 e5       	ldi	r30, 0x57	; 87
    24de:	f0 e0       	ldi	r31, 0x00	; 0
    24e0:	80 81       	ld	r24, Z
    24e2:	84 60       	ori	r24, 0x04	; 4
    24e4:	8c 93       	st	X, r24
		 * 4. clock 		=> CS32 & CS31 & CS30
		 * TCCR3A => COM3A1 COM3A0 COM3B1 COM3B0 FOC3A FOC3B WGM31 WGM30
		 * TCCR3B => ICNC3 ICES3  WGM33 WGM32 CS32 CS31 CS30
		 */

		TCCR3C = (1<<FOC3A) | (1<<FOC3B) | (1<<FOC3C) ;
    24e6:	ec e8       	ldi	r30, 0x8C	; 140
    24e8:	f0 e0       	ldi	r31, 0x00	; 0
    24ea:	80 ee       	ldi	r24, 0xE0	; 224
    24ec:	80 83       	st	Z, r24
		TCCR3B = ((Config_ptr->clock) << CS30) ;
    24ee:	aa e8       	ldi	r26, 0x8A	; 138
    24f0:	b0 e0       	ldi	r27, 0x00	; 0
    24f2:	e9 81       	ldd	r30, Y+1	; 0x01
    24f4:	fa 81       	ldd	r31, Y+2	; 0x02
    24f6:	80 81       	ld	r24, Z
    24f8:	8c 93       	st	X, r24
    24fa:	64 c1       	rjmp	.+712    	; 0x27c4 <TIMER3_init+0x316>
	}

	/* Set TIMER3 In Compare Mode with OCR1A Value */
	else if (Config_ptr->mode == COMP)
    24fc:	e9 81       	ldd	r30, Y+1	; 0x01
    24fe:	fa 81       	ldd	r31, Y+2	; 0x02
    2500:	81 81       	ldd	r24, Z+1	; 0x01
    2502:	82 30       	cpi	r24, 0x02	; 2
    2504:	09 f0       	breq	.+2      	; 0x2508 <TIMER3_init+0x5a>
    2506:	6f c0       	rjmp	.+222    	; 0x25e6 <TIMER3_init+0x138>
	{
		/* Set pin PE3/OC3A as output pin */
		SET_BIT (DDRE,PE3);
    2508:	a2 e2       	ldi	r26, 0x22	; 34
    250a:	b0 e0       	ldi	r27, 0x00	; 0
    250c:	e2 e2       	ldi	r30, 0x22	; 34
    250e:	f0 e0       	ldi	r31, 0x00	; 0
    2510:	80 81       	ld	r24, Z
    2512:	88 60       	ori	r24, 0x08	; 8
    2514:	8c 93       	st	X, r24
		/* Set pin PE4/OC3B/INT4 as output pin */
		SET_BIT (DDRE,PE4);
    2516:	a2 e2       	ldi	r26, 0x22	; 34
    2518:	b0 e0       	ldi	r27, 0x00	; 0
    251a:	e2 e2       	ldi	r30, 0x22	; 34
    251c:	f0 e0       	ldi	r31, 0x00	; 0
    251e:	80 81       	ld	r24, Z
    2520:	80 61       	ori	r24, 0x10	; 16
    2522:	8c 93       	st	X, r24
		/* Set pin PE5/OC3C/INT5 as output pin */
		SET_BIT (DDRE,PE5);
    2524:	a2 e2       	ldi	r26, 0x22	; 34
    2526:	b0 e0       	ldi	r27, 0x00	; 0
    2528:	e2 e2       	ldi	r30, 0x22	; 34
    252a:	f0 e0       	ldi	r31, 0x00	; 0
    252c:	80 81       	ld	r24, Z
    252e:	80 62       	ori	r24, 0x20	; 32
    2530:	8c 93       	st	X, r24

		/* Channels interrupt Enable */
		TIMSK |= (1<<OCIE3A) | (1<<OCIE3B) | (1<<OCIE3C);
    2532:	a7 e5       	ldi	r26, 0x57	; 87
    2534:	b0 e0       	ldi	r27, 0x00	; 0
    2536:	e7 e5       	ldi	r30, 0x57	; 87
    2538:	f0 e0       	ldi	r31, 0x00	; 0
    253a:	80 81       	ld	r24, Z
    253c:	8a 61       	ori	r24, 0x1A	; 26
    253e:	8c 93       	st	X, r24

		/* Initial Value of The Timer TCNT*/
		TCNT3 = 0 ;
    2540:	e8 e8       	ldi	r30, 0x88	; 136
    2542:	f0 e0       	ldi	r31, 0x00	; 0
    2544:	11 82       	std	Z+1, r1	; 0x01
    2546:	10 82       	st	Z, r1

		/* Compare Value for Channel A */
		OCR3A = Config_ptr->OCRValue ;
    2548:	a6 e8       	ldi	r26, 0x86	; 134
    254a:	b0 e0       	ldi	r27, 0x00	; 0
    254c:	e9 81       	ldd	r30, Y+1	; 0x01
    254e:	fa 81       	ldd	r31, Y+2	; 0x02
    2550:	82 81       	ldd	r24, Z+2	; 0x02
    2552:	93 81       	ldd	r25, Z+3	; 0x03
    2554:	11 96       	adiw	r26, 0x01	; 1
    2556:	9c 93       	st	X, r25
    2558:	8e 93       	st	-X, r24
		/* Compare Value for Channel B */
		OCR3B = Config_ptr->OCR1BValue;
    255a:	a4 e8       	ldi	r26, 0x84	; 132
    255c:	b0 e0       	ldi	r27, 0x00	; 0
    255e:	e9 81       	ldd	r30, Y+1	; 0x01
    2560:	fa 81       	ldd	r31, Y+2	; 0x02
    2562:	85 81       	ldd	r24, Z+5	; 0x05
    2564:	96 81       	ldd	r25, Z+6	; 0x06
    2566:	11 96       	adiw	r26, 0x01	; 1
    2568:	9c 93       	st	X, r25
    256a:	8e 93       	st	-X, r24
		/* Compare Value for Channel C */
		OCR3C = Config_ptr->OCR1CValue;
    256c:	a2 e8       	ldi	r26, 0x82	; 130
    256e:	b0 e0       	ldi	r27, 0x00	; 0
    2570:	e9 81       	ldd	r30, Y+1	; 0x01
    2572:	fa 81       	ldd	r31, Y+2	; 0x02
    2574:	80 85       	ldd	r24, Z+8	; 0x08
    2576:	91 85       	ldd	r25, Z+9	; 0x09
    2578:	11 96       	adiw	r26, 0x01	; 1
    257a:	9c 93       	st	X, r25
    257c:	8e 93       	st	-X, r24
		 * TCCR3A => COM3A1 COM3A0 COM3B1 COM3B0 COM3C1 COM3C0 WGM31 WGM30
		 * TCCR3B => ICNC3 ICES3  WGM33 WGM32 CS32 CS31 CS30
		 * TCCR3C => FOC3A FOC3B FOC3C
		 */

		TCCR3A = ((Config_ptr->OC) << COM3A0) | ((Config_ptr->OC1B) << COM3B0) | ((Config_ptr->OC1C) << COM3C0);
    257e:	ab e8       	ldi	r26, 0x8B	; 139
    2580:	b0 e0       	ldi	r27, 0x00	; 0
    2582:	e9 81       	ldd	r30, Y+1	; 0x01
    2584:	fa 81       	ldd	r31, Y+2	; 0x02
    2586:	84 81       	ldd	r24, Z+4	; 0x04
    2588:	88 2f       	mov	r24, r24
    258a:	90 e0       	ldi	r25, 0x00	; 0
    258c:	00 24       	eor	r0, r0
    258e:	96 95       	lsr	r25
    2590:	87 95       	ror	r24
    2592:	07 94       	ror	r0
    2594:	96 95       	lsr	r25
    2596:	87 95       	ror	r24
    2598:	07 94       	ror	r0
    259a:	98 2f       	mov	r25, r24
    259c:	80 2d       	mov	r24, r0
    259e:	28 2f       	mov	r18, r24
    25a0:	e9 81       	ldd	r30, Y+1	; 0x01
    25a2:	fa 81       	ldd	r31, Y+2	; 0x02
    25a4:	87 81       	ldd	r24, Z+7	; 0x07
    25a6:	88 2f       	mov	r24, r24
    25a8:	90 e0       	ldi	r25, 0x00	; 0
    25aa:	82 95       	swap	r24
    25ac:	92 95       	swap	r25
    25ae:	90 7f       	andi	r25, 0xF0	; 240
    25b0:	98 27       	eor	r25, r24
    25b2:	80 7f       	andi	r24, 0xF0	; 240
    25b4:	98 27       	eor	r25, r24
    25b6:	28 2b       	or	r18, r24
    25b8:	e9 81       	ldd	r30, Y+1	; 0x01
    25ba:	fa 81       	ldd	r31, Y+2	; 0x02
    25bc:	82 85       	ldd	r24, Z+10	; 0x0a
    25be:	88 2f       	mov	r24, r24
    25c0:	90 e0       	ldi	r25, 0x00	; 0
    25c2:	88 0f       	add	r24, r24
    25c4:	99 1f       	adc	r25, r25
    25c6:	88 0f       	add	r24, r24
    25c8:	99 1f       	adc	r25, r25
    25ca:	82 2b       	or	r24, r18
    25cc:	8c 93       	st	X, r24
		TCCR3B = (1<<WGM33) | (1<<WGM32) | ((Config_ptr->clock) << CS30) ;
    25ce:	aa e8       	ldi	r26, 0x8A	; 138
    25d0:	b0 e0       	ldi	r27, 0x00	; 0
    25d2:	e9 81       	ldd	r30, Y+1	; 0x01
    25d4:	fa 81       	ldd	r31, Y+2	; 0x02
    25d6:	80 81       	ld	r24, Z
    25d8:	88 61       	ori	r24, 0x18	; 24
    25da:	8c 93       	st	X, r24
		TCCR3C = (1<<FOC3A) | (1<<FOC3B) | (1<<FOC3C);
    25dc:	ec e8       	ldi	r30, 0x8C	; 140
    25de:	f0 e0       	ldi	r31, 0x00	; 0
    25e0:	80 ee       	ldi	r24, 0xE0	; 224
    25e2:	80 83       	st	Z, r24
    25e4:	ef c0       	rjmp	.+478    	; 0x27c4 <TIMER3_init+0x316>
	}

	/* Set TIMER3 In CTC Square Wave Mode */
	else if (Config_ptr->mode == CTC)
    25e6:	e9 81       	ldd	r30, Y+1	; 0x01
    25e8:	fa 81       	ldd	r31, Y+2	; 0x02
    25ea:	81 81       	ldd	r24, Z+1	; 0x01
    25ec:	81 30       	cpi	r24, 0x01	; 1
    25ee:	09 f0       	breq	.+2      	; 0x25f2 <TIMER3_init+0x144>
    25f0:	6f c0       	rjmp	.+222    	; 0x26d0 <TIMER3_init+0x222>
	{
		/* Set pin PE3/OC3A as output pin */
		SET_BIT (DDRE,PE3);
    25f2:	a2 e2       	ldi	r26, 0x22	; 34
    25f4:	b0 e0       	ldi	r27, 0x00	; 0
    25f6:	e2 e2       	ldi	r30, 0x22	; 34
    25f8:	f0 e0       	ldi	r31, 0x00	; 0
    25fa:	80 81       	ld	r24, Z
    25fc:	88 60       	ori	r24, 0x08	; 8
    25fe:	8c 93       	st	X, r24
		/* Set pin PE4/OC3B/INT4 as output pin */
		SET_BIT (DDRE,PE4);
    2600:	a2 e2       	ldi	r26, 0x22	; 34
    2602:	b0 e0       	ldi	r27, 0x00	; 0
    2604:	e2 e2       	ldi	r30, 0x22	; 34
    2606:	f0 e0       	ldi	r31, 0x00	; 0
    2608:	80 81       	ld	r24, Z
    260a:	80 61       	ori	r24, 0x10	; 16
    260c:	8c 93       	st	X, r24
		/* Set pin PE5/OC3C/INT5 as output pin */
		SET_BIT (DDRE,PE5);
    260e:	a2 e2       	ldi	r26, 0x22	; 34
    2610:	b0 e0       	ldi	r27, 0x00	; 0
    2612:	e2 e2       	ldi	r30, 0x22	; 34
    2614:	f0 e0       	ldi	r31, 0x00	; 0
    2616:	80 81       	ld	r24, Z
    2618:	80 62       	ori	r24, 0x20	; 32
    261a:	8c 93       	st	X, r24

		/* Channels interrupt Enable */
		TIMSK |= (1<<OCIE3A) | (1<<OCIE3B) | (1<<OCIE3C);
    261c:	a7 e5       	ldi	r26, 0x57	; 87
    261e:	b0 e0       	ldi	r27, 0x00	; 0
    2620:	e7 e5       	ldi	r30, 0x57	; 87
    2622:	f0 e0       	ldi	r31, 0x00	; 0
    2624:	80 81       	ld	r24, Z
    2626:	8a 61       	ori	r24, 0x1A	; 26
    2628:	8c 93       	st	X, r24

		/* Initial Value of The Timer TCNT*/
		TCNT3 = 0 ;
    262a:	e8 e8       	ldi	r30, 0x88	; 136
    262c:	f0 e0       	ldi	r31, 0x00	; 0
    262e:	11 82       	std	Z+1, r1	; 0x01
    2630:	10 82       	st	Z, r1

		/* Compare Value for Channel A */
		OCR3A = Config_ptr->OCRValue ;
    2632:	a6 e8       	ldi	r26, 0x86	; 134
    2634:	b0 e0       	ldi	r27, 0x00	; 0
    2636:	e9 81       	ldd	r30, Y+1	; 0x01
    2638:	fa 81       	ldd	r31, Y+2	; 0x02
    263a:	82 81       	ldd	r24, Z+2	; 0x02
    263c:	93 81       	ldd	r25, Z+3	; 0x03
    263e:	11 96       	adiw	r26, 0x01	; 1
    2640:	9c 93       	st	X, r25
    2642:	8e 93       	st	-X, r24
		/* Compare Value for Channel B */
		OCR3B = Config_ptr->OCR1BValue;
    2644:	a4 e8       	ldi	r26, 0x84	; 132
    2646:	b0 e0       	ldi	r27, 0x00	; 0
    2648:	e9 81       	ldd	r30, Y+1	; 0x01
    264a:	fa 81       	ldd	r31, Y+2	; 0x02
    264c:	85 81       	ldd	r24, Z+5	; 0x05
    264e:	96 81       	ldd	r25, Z+6	; 0x06
    2650:	11 96       	adiw	r26, 0x01	; 1
    2652:	9c 93       	st	X, r25
    2654:	8e 93       	st	-X, r24
		/* Compare Value for Channel C */
		OCR3C = Config_ptr->OCR1CValue;
    2656:	a2 e8       	ldi	r26, 0x82	; 130
    2658:	b0 e0       	ldi	r27, 0x00	; 0
    265a:	e9 81       	ldd	r30, Y+1	; 0x01
    265c:	fa 81       	ldd	r31, Y+2	; 0x02
    265e:	80 85       	ldd	r24, Z+8	; 0x08
    2660:	91 85       	ldd	r25, Z+9	; 0x09
    2662:	11 96       	adiw	r26, 0x01	; 1
    2664:	9c 93       	st	X, r25
    2666:	8e 93       	st	-X, r24
		 * TCCR3A => COM3A1 COM3A0 COM3B1 COM3B0 COM3C1 COM3C0 WGM31 WGM30
		 * TCCR3B => ICNC3 ICES3  WGM33 WGM32 CS32 CS31 CS30
		 * TCCR3C => FOC3A FOC3B FOC3C
		 */

		TCCR3A = ((Config_ptr->OC) << COM3A0) | ((Config_ptr->OC1B) << COM3B0) | ((Config_ptr->OC1C) << COM3C0);
    2668:	ab e8       	ldi	r26, 0x8B	; 139
    266a:	b0 e0       	ldi	r27, 0x00	; 0
    266c:	e9 81       	ldd	r30, Y+1	; 0x01
    266e:	fa 81       	ldd	r31, Y+2	; 0x02
    2670:	84 81       	ldd	r24, Z+4	; 0x04
    2672:	88 2f       	mov	r24, r24
    2674:	90 e0       	ldi	r25, 0x00	; 0
    2676:	00 24       	eor	r0, r0
    2678:	96 95       	lsr	r25
    267a:	87 95       	ror	r24
    267c:	07 94       	ror	r0
    267e:	96 95       	lsr	r25
    2680:	87 95       	ror	r24
    2682:	07 94       	ror	r0
    2684:	98 2f       	mov	r25, r24
    2686:	80 2d       	mov	r24, r0
    2688:	28 2f       	mov	r18, r24
    268a:	e9 81       	ldd	r30, Y+1	; 0x01
    268c:	fa 81       	ldd	r31, Y+2	; 0x02
    268e:	87 81       	ldd	r24, Z+7	; 0x07
    2690:	88 2f       	mov	r24, r24
    2692:	90 e0       	ldi	r25, 0x00	; 0
    2694:	82 95       	swap	r24
    2696:	92 95       	swap	r25
    2698:	90 7f       	andi	r25, 0xF0	; 240
    269a:	98 27       	eor	r25, r24
    269c:	80 7f       	andi	r24, 0xF0	; 240
    269e:	98 27       	eor	r25, r24
    26a0:	28 2b       	or	r18, r24
    26a2:	e9 81       	ldd	r30, Y+1	; 0x01
    26a4:	fa 81       	ldd	r31, Y+2	; 0x02
    26a6:	82 85       	ldd	r24, Z+10	; 0x0a
    26a8:	88 2f       	mov	r24, r24
    26aa:	90 e0       	ldi	r25, 0x00	; 0
    26ac:	88 0f       	add	r24, r24
    26ae:	99 1f       	adc	r25, r25
    26b0:	88 0f       	add	r24, r24
    26b2:	99 1f       	adc	r25, r25
    26b4:	82 2b       	or	r24, r18
    26b6:	8c 93       	st	X, r24
		TCCR3B = (1<<WGM32) | ((Config_ptr->clock) << CS30) ;
    26b8:	aa e8       	ldi	r26, 0x8A	; 138
    26ba:	b0 e0       	ldi	r27, 0x00	; 0
    26bc:	e9 81       	ldd	r30, Y+1	; 0x01
    26be:	fa 81       	ldd	r31, Y+2	; 0x02
    26c0:	80 81       	ld	r24, Z
    26c2:	88 60       	ori	r24, 0x08	; 8
    26c4:	8c 93       	st	X, r24
		TCCR3C = (1<<FOC3A) | (1<<FOC3B) | (1<<FOC3C);
    26c6:	ec e8       	ldi	r30, 0x8C	; 140
    26c8:	f0 e0       	ldi	r31, 0x00	; 0
    26ca:	80 ee       	ldi	r24, 0xE0	; 224
    26cc:	80 83       	st	Z, r24
    26ce:	7a c0       	rjmp	.+244    	; 0x27c4 <TIMER3_init+0x316>
	}

	/* Set TIMER1 In PWM Mode with Duty Cycle */
	else if (Config_ptr->mode == PWM)
    26d0:	e9 81       	ldd	r30, Y+1	; 0x01
    26d2:	fa 81       	ldd	r31, Y+2	; 0x02
    26d4:	81 81       	ldd	r24, Z+1	; 0x01
    26d6:	83 30       	cpi	r24, 0x03	; 3
    26d8:	09 f0       	breq	.+2      	; 0x26dc <TIMER3_init+0x22e>
    26da:	74 c0       	rjmp	.+232    	; 0x27c4 <TIMER3_init+0x316>
	{
		/* Set pin PE3/OC3A as output pin */
		SET_BIT (DDRE,PE3);
    26dc:	a2 e2       	ldi	r26, 0x22	; 34
    26de:	b0 e0       	ldi	r27, 0x00	; 0
    26e0:	e2 e2       	ldi	r30, 0x22	; 34
    26e2:	f0 e0       	ldi	r31, 0x00	; 0
    26e4:	80 81       	ld	r24, Z
    26e6:	88 60       	ori	r24, 0x08	; 8
    26e8:	8c 93       	st	X, r24
		/* Set pin PE4/OC3B/INT4 as output pin */
		SET_BIT (DDRE,PE4);
    26ea:	a2 e2       	ldi	r26, 0x22	; 34
    26ec:	b0 e0       	ldi	r27, 0x00	; 0
    26ee:	e2 e2       	ldi	r30, 0x22	; 34
    26f0:	f0 e0       	ldi	r31, 0x00	; 0
    26f2:	80 81       	ld	r24, Z
    26f4:	80 61       	ori	r24, 0x10	; 16
    26f6:	8c 93       	st	X, r24
		/* Set pin PE5/OC3C/INT5 as output pin */
		SET_BIT (DDRE,PE5);
    26f8:	a2 e2       	ldi	r26, 0x22	; 34
    26fa:	b0 e0       	ldi	r27, 0x00	; 0
    26fc:	e2 e2       	ldi	r30, 0x22	; 34
    26fe:	f0 e0       	ldi	r31, 0x00	; 0
    2700:	80 81       	ld	r24, Z
    2702:	80 62       	ori	r24, 0x20	; 32
    2704:	8c 93       	st	X, r24

		/* Channels interrupt Enable */
		TIMSK |= (1<<OCIE3A) | (1<<OCIE3B) | (1<<OCIE3C);
    2706:	a7 e5       	ldi	r26, 0x57	; 87
    2708:	b0 e0       	ldi	r27, 0x00	; 0
    270a:	e7 e5       	ldi	r30, 0x57	; 87
    270c:	f0 e0       	ldi	r31, 0x00	; 0
    270e:	80 81       	ld	r24, Z
    2710:	8a 61       	ori	r24, 0x1A	; 26
    2712:	8c 93       	st	X, r24

		/* Initial Value of The Timer TCNT*/
		TCNT3 = 0 ;
    2714:	e8 e8       	ldi	r30, 0x88	; 136
    2716:	f0 e0       	ldi	r31, 0x00	; 0
    2718:	11 82       	std	Z+1, r1	; 0x01
    271a:	10 82       	st	Z, r1

		/* Duty Cycle Value for Channel A */
		OCR3A = Config_ptr->OCRValue;
    271c:	a6 e8       	ldi	r26, 0x86	; 134
    271e:	b0 e0       	ldi	r27, 0x00	; 0
    2720:	e9 81       	ldd	r30, Y+1	; 0x01
    2722:	fa 81       	ldd	r31, Y+2	; 0x02
    2724:	82 81       	ldd	r24, Z+2	; 0x02
    2726:	93 81       	ldd	r25, Z+3	; 0x03
    2728:	11 96       	adiw	r26, 0x01	; 1
    272a:	9c 93       	st	X, r25
    272c:	8e 93       	st	-X, r24
		/* Duty Cycle Value for Channel B */
		OCR3B = Config_ptr->OCR1BValue;
    272e:	a4 e8       	ldi	r26, 0x84	; 132
    2730:	b0 e0       	ldi	r27, 0x00	; 0
    2732:	e9 81       	ldd	r30, Y+1	; 0x01
    2734:	fa 81       	ldd	r31, Y+2	; 0x02
    2736:	85 81       	ldd	r24, Z+5	; 0x05
    2738:	96 81       	ldd	r25, Z+6	; 0x06
    273a:	11 96       	adiw	r26, 0x01	; 1
    273c:	9c 93       	st	X, r25
    273e:	8e 93       	st	-X, r24
		/* Duty Cycle Value for Channel C */
		OCR3C = Config_ptr->OCR1CValue;
    2740:	a2 e8       	ldi	r26, 0x82	; 130
    2742:	b0 e0       	ldi	r27, 0x00	; 0
    2744:	e9 81       	ldd	r30, Y+1	; 0x01
    2746:	fa 81       	ldd	r31, Y+2	; 0x02
    2748:	80 85       	ldd	r24, Z+8	; 0x08
    274a:	91 85       	ldd	r25, Z+9	; 0x09
    274c:	11 96       	adiw	r26, 0x01	; 1
    274e:	9c 93       	st	X, r25
    2750:	8e 93       	st	-X, r24

		/* using ICR1 as Top Value for Duty Cycle for all Channels
		 * Duty Cycle for PWM Mode = OCR1x/ICR1 */
		ICR3 = Config_ptr->ICR1Value;
    2752:	a0 e8       	ldi	r26, 0x80	; 128
    2754:	b0 e0       	ldi	r27, 0x00	; 0
    2756:	e9 81       	ldd	r30, Y+1	; 0x01
    2758:	fa 81       	ldd	r31, Y+2	; 0x02
    275a:	83 85       	ldd	r24, Z+11	; 0x0b
    275c:	94 85       	ldd	r25, Z+12	; 0x0c
    275e:	11 96       	adiw	r26, 0x01	; 1
    2760:	9c 93       	st	X, r25
    2762:	8e 93       	st	-X, r24
		 * 4. clock 		=> CS32 & CS31 & CS30
		 * TCCR3A => COM3A1 COM3A0 COM3B1 COM3B0 COM3C1 COM3C0 WGM31 WGM30
		 * TCCR3B => ICNC3 ICES3  WGM33 WGM32 CS32 CS31 CS30
		 *
		 */
		TCCR3A = ((Config_ptr->OC) << COM3A0) | ((Config_ptr->OC1B) << COM3B0)
    2764:	ab e8       	ldi	r26, 0x8B	; 139
    2766:	b0 e0       	ldi	r27, 0x00	; 0
    2768:	e9 81       	ldd	r30, Y+1	; 0x01
    276a:	fa 81       	ldd	r31, Y+2	; 0x02
    276c:	84 81       	ldd	r24, Z+4	; 0x04
    276e:	88 2f       	mov	r24, r24
    2770:	90 e0       	ldi	r25, 0x00	; 0
    2772:	00 24       	eor	r0, r0
    2774:	96 95       	lsr	r25
    2776:	87 95       	ror	r24
    2778:	07 94       	ror	r0
    277a:	96 95       	lsr	r25
    277c:	87 95       	ror	r24
    277e:	07 94       	ror	r0
    2780:	98 2f       	mov	r25, r24
    2782:	80 2d       	mov	r24, r0
    2784:	28 2f       	mov	r18, r24
    2786:	e9 81       	ldd	r30, Y+1	; 0x01
    2788:	fa 81       	ldd	r31, Y+2	; 0x02
    278a:	87 81       	ldd	r24, Z+7	; 0x07
    278c:	88 2f       	mov	r24, r24
    278e:	90 e0       	ldi	r25, 0x00	; 0
    2790:	82 95       	swap	r24
    2792:	92 95       	swap	r25
    2794:	90 7f       	andi	r25, 0xF0	; 240
    2796:	98 27       	eor	r25, r24
    2798:	80 7f       	andi	r24, 0xF0	; 240
    279a:	98 27       	eor	r25, r24
    279c:	28 2b       	or	r18, r24
    279e:	e9 81       	ldd	r30, Y+1	; 0x01
    27a0:	fa 81       	ldd	r31, Y+2	; 0x02
    27a2:	82 85       	ldd	r24, Z+10	; 0x0a
    27a4:	88 2f       	mov	r24, r24
    27a6:	90 e0       	ldi	r25, 0x00	; 0
    27a8:	88 0f       	add	r24, r24
    27aa:	99 1f       	adc	r25, r25
    27ac:	88 0f       	add	r24, r24
    27ae:	99 1f       	adc	r25, r25
    27b0:	82 2b       	or	r24, r18
    27b2:	82 60       	ori	r24, 0x02	; 2
    27b4:	8c 93       	st	X, r24
				|((Config_ptr->OC1C) << COM3C0) | (1<<WGM31);

		TCCR3B = (1<<WGM33) | (1<<WGM32) | ((Config_ptr->clock) << CS30) ;
    27b6:	aa e8       	ldi	r26, 0x8A	; 138
    27b8:	b0 e0       	ldi	r27, 0x00	; 0
    27ba:	e9 81       	ldd	r30, Y+1	; 0x01
    27bc:	fa 81       	ldd	r31, Y+2	; 0x02
    27be:	80 81       	ld	r24, Z
    27c0:	88 61       	ori	r24, 0x18	; 24
    27c2:	8c 93       	st	X, r24
	}
}
    27c4:	0f 90       	pop	r0
    27c6:	0f 90       	pop	r0
    27c8:	cf 91       	pop	r28
    27ca:	df 91       	pop	r29
    27cc:	08 95       	ret

000027ce <TIMER3_resetTimer>:
/*
 * Description: Function to clear the TIMER1 Value to start count from ZERO
 */
void TIMER3_resetTimer(void)
{
    27ce:	df 93       	push	r29
    27d0:	cf 93       	push	r28
    27d2:	cd b7       	in	r28, 0x3d	; 61
    27d4:	de b7       	in	r29, 0x3e	; 62
	TCNT3 = 0;
    27d6:	e8 e8       	ldi	r30, 0x88	; 136
    27d8:	f0 e0       	ldi	r31, 0x00	; 0
    27da:	11 82       	std	Z+1, r1	; 0x01
    27dc:	10 82       	st	Z, r1
}
    27de:	cf 91       	pop	r28
    27e0:	df 91       	pop	r29
    27e2:	08 95       	ret

000027e4 <TIMER3_stopTimer>:
 * Description: Function to Stop the TIMER1
 * CLEAR CS12 CS11 CS10
 * TCCR1B => ICNC1 ICES1  WGM13 WGM12 CS12 CS11 CS10
 */
void TIMER3_stopTimer(void)
{
    27e4:	df 93       	push	r29
    27e6:	cf 93       	push	r28
    27e8:	cd b7       	in	r28, 0x3d	; 61
    27ea:	de b7       	in	r29, 0x3e	; 62
	/* Clear Clock Bits */
	TCCR3B &= 0xF8 ;
    27ec:	aa e8       	ldi	r26, 0x8A	; 138
    27ee:	b0 e0       	ldi	r27, 0x00	; 0
    27f0:	ea e8       	ldi	r30, 0x8A	; 138
    27f2:	f0 e0       	ldi	r31, 0x00	; 0
    27f4:	80 81       	ld	r24, Z
    27f6:	88 7f       	andi	r24, 0xF8	; 248
    27f8:	8c 93       	st	X, r24
}
    27fa:	cf 91       	pop	r28
    27fc:	df 91       	pop	r29
    27fe:	08 95       	ret

00002800 <TIMER3_restartTimer>:
 * Description: Function to Restart the TIMER1
 * CLEAR CS12 CS11 CS10
 * TCCR1B => ICNC1 ICES1  WGM13 WGM12 CS12 CS11 CS10
 */
void TIMER3_restartTimer(void)
{
    2800:	df 93       	push	r29
    2802:	cf 93       	push	r28
    2804:	cd b7       	in	r28, 0x3d	; 61
    2806:	de b7       	in	r29, 0x3e	; 62
	/* Clear Clock Bits */
	TCCR3B &= 0xF8 ;
    2808:	aa e8       	ldi	r26, 0x8A	; 138
    280a:	b0 e0       	ldi	r27, 0x00	; 0
    280c:	ea e8       	ldi	r30, 0x8A	; 138
    280e:	f0 e0       	ldi	r31, 0x00	; 0
    2810:	80 81       	ld	r24, Z
    2812:	88 7f       	andi	r24, 0xF8	; 248
    2814:	8c 93       	st	X, r24

	/* Set Clock Bits */
	TCCR3B |= ( g_T3clock << CS30) ;
    2816:	aa e8       	ldi	r26, 0x8A	; 138
    2818:	b0 e0       	ldi	r27, 0x00	; 0
    281a:	ea e8       	ldi	r30, 0x8A	; 138
    281c:	f0 e0       	ldi	r31, 0x00	; 0
    281e:	90 81       	ld	r25, Z
    2820:	80 91 29 02 	lds	r24, 0x0229
    2824:	89 2b       	or	r24, r25
    2826:	8c 93       	st	X, r24
}
    2828:	cf 91       	pop	r28
    282a:	df 91       	pop	r29
    282c:	08 95       	ret

0000282e <TIMER3_Ticks>:
/*
 * Description: Function to Change Ticks (Compare Value) of Timer
 * 				using also to Change Duty Cycle in PWM Mode
 */
void TIMER3_Ticks(const uint16 Ticks3A, const uint16 Ticks3B)
{
    282e:	df 93       	push	r29
    2830:	cf 93       	push	r28
    2832:	00 d0       	rcall	.+0      	; 0x2834 <TIMER3_Ticks+0x6>
    2834:	00 d0       	rcall	.+0      	; 0x2836 <TIMER3_Ticks+0x8>
    2836:	cd b7       	in	r28, 0x3d	; 61
    2838:	de b7       	in	r29, 0x3e	; 62
    283a:	9a 83       	std	Y+2, r25	; 0x02
    283c:	89 83       	std	Y+1, r24	; 0x01
    283e:	7c 83       	std	Y+4, r23	; 0x04
    2840:	6b 83       	std	Y+3, r22	; 0x03
	OCR3A = Ticks3A;
    2842:	e6 e8       	ldi	r30, 0x86	; 134
    2844:	f0 e0       	ldi	r31, 0x00	; 0
    2846:	89 81       	ldd	r24, Y+1	; 0x01
    2848:	9a 81       	ldd	r25, Y+2	; 0x02
    284a:	91 83       	std	Z+1, r25	; 0x01
    284c:	80 83       	st	Z, r24
	OCR3B = Ticks3B;
    284e:	e4 e8       	ldi	r30, 0x84	; 132
    2850:	f0 e0       	ldi	r31, 0x00	; 0
    2852:	8b 81       	ldd	r24, Y+3	; 0x03
    2854:	9c 81       	ldd	r25, Y+4	; 0x04
    2856:	91 83       	std	Z+1, r25	; 0x01
    2858:	80 83       	st	Z, r24
}
    285a:	0f 90       	pop	r0
    285c:	0f 90       	pop	r0
    285e:	0f 90       	pop	r0
    2860:	0f 90       	pop	r0
    2862:	cf 91       	pop	r28
    2864:	df 91       	pop	r29
    2866:	08 95       	ret

00002868 <TIMER3_setCallBack>:

/*
 * Description: Function to set the Call Back function address for TIMER2 .
 */
void TIMER3_setCallBack(void(*a_ptr)(void))
{
    2868:	df 93       	push	r29
    286a:	cf 93       	push	r28
    286c:	00 d0       	rcall	.+0      	; 0x286e <TIMER3_setCallBack+0x6>
    286e:	cd b7       	in	r28, 0x3d	; 61
    2870:	de b7       	in	r29, 0x3e	; 62
    2872:	9a 83       	std	Y+2, r25	; 0x02
    2874:	89 83       	std	Y+1, r24	; 0x01
	/* Save the address of the Call back function in a global variable */
	g_TIMER3_callBackPtr = a_ptr;
    2876:	89 81       	ldd	r24, Y+1	; 0x01
    2878:	9a 81       	ldd	r25, Y+2	; 0x02
    287a:	90 93 25 02 	sts	0x0225, r25
    287e:	80 93 24 02 	sts	0x0224, r24
}
    2882:	0f 90       	pop	r0
    2884:	0f 90       	pop	r0
    2886:	cf 91       	pop	r28
    2888:	df 91       	pop	r29
    288a:	08 95       	ret

0000288c <TIMER3_deinit>:

         /*------------------- Description --------------------
           Function to cancel the initializations of the timer
          ----------------------------------------------------*/
void TIMER3_deinit (void)
{
    288c:	df 93       	push	r29
    288e:	cf 93       	push	r28
    2890:	cd b7       	in	r28, 0x3d	; 61
    2892:	de b7       	in	r29, 0x3e	; 62
	TCCR1A = 0x00;
    2894:	ef e4       	ldi	r30, 0x4F	; 79
    2896:	f0 e0       	ldi	r31, 0x00	; 0
    2898:	10 82       	st	Z, r1
	TCCR1B = 0x00;
    289a:	ee e4       	ldi	r30, 0x4E	; 78
    289c:	f0 e0       	ldi	r31, 0x00	; 0
    289e:	10 82       	st	Z, r1
	TCCR1C = 0x00;
    28a0:	ea e7       	ldi	r30, 0x7A	; 122
    28a2:	f0 e0       	ldi	r31, 0x00	; 0
    28a4:	10 82       	st	Z, r1
}
    28a6:	cf 91       	pop	r28
    28a8:	df 91       	pop	r29
    28aa:	08 95       	ret

000028ac <UART0_init>:
          -  2. Select stop bit.
          -  3. Select data size.
          -  4. Set baud rate.
          ----------------------------------------------------*/
void UART0_init (const UART_ConfigType *config_ptr)
{
    28ac:	0f 93       	push	r16
    28ae:	1f 93       	push	r17
    28b0:	df 93       	push	r29
    28b2:	cf 93       	push	r28
    28b4:	00 d0       	rcall	.+0      	; 0x28b6 <UART0_init+0xa>
    28b6:	cd b7       	in	r28, 0x3d	; 61
    28b8:	de b7       	in	r29, 0x3e	; 62
    28ba:	9a 83       	std	Y+2, r25	; 0x02
    28bc:	89 83       	std	Y+1, r24	; 0x01
	/* U2X0 = 1 for double transmission speed for Asynchronous */
	UCSR0A = (1<<U2X0);
    28be:	eb e2       	ldi	r30, 0x2B	; 43
    28c0:	f0 e0       	ldi	r31, 0x00	; 0
    28c2:	82 e0       	ldi	r24, 0x02	; 2
    28c4:	80 83       	st	Z, r24
	 - UDRIE0 = 0 Disable Data Register Empty Interrupt Enable
	 - RXEN0  = 1 Receiver Enable
	 - TXEN0  = 1 Transmitter Enable
	 - UCSZ02 & RXB80 & TXB80 Used for 9-bit data mode
     ----------------------------------------------------------*/
	UCSR0B = (1<<RXEN0) | (1<<TXEN0);
    28c6:	ea e2       	ldi	r30, 0x2A	; 42
    28c8:	f0 e0       	ldi	r31, 0x00	; 0
    28ca:	88 e1       	ldi	r24, 0x18	; 24
    28cc:	80 83       	st	Z, r24

	if ((config_ptr -> data_size) == 7)
    28ce:	e9 81       	ldd	r30, Y+1	; 0x01
    28d0:	fa 81       	ldd	r31, Y+2	; 0x02
    28d2:	82 81       	ldd	r24, Z+2	; 0x02
    28d4:	87 30       	cpi	r24, 0x07	; 7
    28d6:	39 f4       	brne	.+14     	; 0x28e6 <UART0_init+0x3a>
	{
	UCSR0B |= (1<<UCSZ02) | (1<<RXB80) | (1<<TXB80);
    28d8:	aa e2       	ldi	r26, 0x2A	; 42
    28da:	b0 e0       	ldi	r27, 0x00	; 0
    28dc:	ea e2       	ldi	r30, 0x2A	; 42
    28de:	f0 e0       	ldi	r31, 0x00	; 0
    28e0:	80 81       	ld	r24, Z
    28e2:	87 60       	ori	r24, 0x07	; 7
    28e4:	8c 93       	st	X, r24
	 - UPM01:0    Parity Mode Selected
	 - USB0S      Stop Bit Selected
	 - UCPOL0   = 0 (Used with the Synchronous operation only)
	 - UCSZ01:0   Data Size Selected
     ----------------------------------------------------------*/
	UCSR0C = ((config_ptr -> parity_mode)  <<UPM00) |
    28e6:	a5 e9       	ldi	r26, 0x95	; 149
    28e8:	b0 e0       	ldi	r27, 0x00	; 0
    28ea:	e9 81       	ldd	r30, Y+1	; 0x01
    28ec:	fa 81       	ldd	r31, Y+2	; 0x02
    28ee:	80 81       	ld	r24, Z
    28f0:	88 2f       	mov	r24, r24
    28f2:	90 e0       	ldi	r25, 0x00	; 0
    28f4:	82 95       	swap	r24
    28f6:	92 95       	swap	r25
    28f8:	90 7f       	andi	r25, 0xF0	; 240
    28fa:	98 27       	eor	r25, r24
    28fc:	80 7f       	andi	r24, 0xF0	; 240
    28fe:	98 27       	eor	r25, r24
    2900:	28 2f       	mov	r18, r24
    2902:	e9 81       	ldd	r30, Y+1	; 0x01
    2904:	fa 81       	ldd	r31, Y+2	; 0x02
    2906:	81 81       	ldd	r24, Z+1	; 0x01
    2908:	88 2f       	mov	r24, r24
    290a:	90 e0       	ldi	r25, 0x00	; 0
    290c:	88 0f       	add	r24, r24
    290e:	99 1f       	adc	r25, r25
    2910:	88 0f       	add	r24, r24
    2912:	99 1f       	adc	r25, r25
    2914:	88 0f       	add	r24, r24
    2916:	99 1f       	adc	r25, r25
    2918:	28 2b       	or	r18, r24
    291a:	e9 81       	ldd	r30, Y+1	; 0x01
    291c:	fa 81       	ldd	r31, Y+2	; 0x02
    291e:	82 81       	ldd	r24, Z+2	; 0x02
    2920:	88 2f       	mov	r24, r24
    2922:	90 e0       	ldi	r25, 0x00	; 0
    2924:	83 70       	andi	r24, 0x03	; 3
    2926:	90 70       	andi	r25, 0x00	; 0
    2928:	88 0f       	add	r24, r24
    292a:	99 1f       	adc	r25, r25
    292c:	82 2b       	or	r24, r18
    292e:	8c 93       	st	X, r24

	/*Equation for calculating UBRR depending on baud rate
	 - UBRR0L for the least 8-bits
	 - UBBR0H for the most 4-bits
	 */
	UBRR0L = (((F_CPU/((config_ptr -> baud_rate) * 8))-1));
    2930:	09 e2       	ldi	r16, 0x29	; 41
    2932:	10 e0       	ldi	r17, 0x00	; 0
    2934:	e9 81       	ldd	r30, Y+1	; 0x01
    2936:	fa 81       	ldd	r31, Y+2	; 0x02
    2938:	83 81       	ldd	r24, Z+3	; 0x03
    293a:	94 81       	ldd	r25, Z+4	; 0x04
    293c:	a5 81       	ldd	r26, Z+5	; 0x05
    293e:	b6 81       	ldd	r27, Z+6	; 0x06
    2940:	88 0f       	add	r24, r24
    2942:	99 1f       	adc	r25, r25
    2944:	aa 1f       	adc	r26, r26
    2946:	bb 1f       	adc	r27, r27
    2948:	88 0f       	add	r24, r24
    294a:	99 1f       	adc	r25, r25
    294c:	aa 1f       	adc	r26, r26
    294e:	bb 1f       	adc	r27, r27
    2950:	88 0f       	add	r24, r24
    2952:	99 1f       	adc	r25, r25
    2954:	aa 1f       	adc	r26, r26
    2956:	bb 1f       	adc	r27, r27
    2958:	9c 01       	movw	r18, r24
    295a:	ad 01       	movw	r20, r26
    295c:	80 e0       	ldi	r24, 0x00	; 0
    295e:	94 e2       	ldi	r25, 0x24	; 36
    2960:	a4 ef       	ldi	r26, 0xF4	; 244
    2962:	b0 e0       	ldi	r27, 0x00	; 0
    2964:	bc 01       	movw	r22, r24
    2966:	cd 01       	movw	r24, r26
    2968:	0e 94 46 16 	call	0x2c8c	; 0x2c8c <__udivmodsi4>
    296c:	da 01       	movw	r26, r20
    296e:	c9 01       	movw	r24, r18
    2970:	81 50       	subi	r24, 0x01	; 1
    2972:	f8 01       	movw	r30, r16
    2974:	80 83       	st	Z, r24
	UBRR0H = ((((F_CPU/((config_ptr -> baud_rate) * 8))-1)) >> 8);
    2976:	00 e9       	ldi	r16, 0x90	; 144
    2978:	10 e0       	ldi	r17, 0x00	; 0
    297a:	e9 81       	ldd	r30, Y+1	; 0x01
    297c:	fa 81       	ldd	r31, Y+2	; 0x02
    297e:	83 81       	ldd	r24, Z+3	; 0x03
    2980:	94 81       	ldd	r25, Z+4	; 0x04
    2982:	a5 81       	ldd	r26, Z+5	; 0x05
    2984:	b6 81       	ldd	r27, Z+6	; 0x06
    2986:	88 0f       	add	r24, r24
    2988:	99 1f       	adc	r25, r25
    298a:	aa 1f       	adc	r26, r26
    298c:	bb 1f       	adc	r27, r27
    298e:	88 0f       	add	r24, r24
    2990:	99 1f       	adc	r25, r25
    2992:	aa 1f       	adc	r26, r26
    2994:	bb 1f       	adc	r27, r27
    2996:	88 0f       	add	r24, r24
    2998:	99 1f       	adc	r25, r25
    299a:	aa 1f       	adc	r26, r26
    299c:	bb 1f       	adc	r27, r27
    299e:	9c 01       	movw	r18, r24
    29a0:	ad 01       	movw	r20, r26
    29a2:	80 e0       	ldi	r24, 0x00	; 0
    29a4:	94 e2       	ldi	r25, 0x24	; 36
    29a6:	a4 ef       	ldi	r26, 0xF4	; 244
    29a8:	b0 e0       	ldi	r27, 0x00	; 0
    29aa:	bc 01       	movw	r22, r24
    29ac:	cd 01       	movw	r24, r26
    29ae:	0e 94 46 16 	call	0x2c8c	; 0x2c8c <__udivmodsi4>
    29b2:	da 01       	movw	r26, r20
    29b4:	c9 01       	movw	r24, r18
    29b6:	01 97       	sbiw	r24, 0x01	; 1
    29b8:	a1 09       	sbc	r26, r1
    29ba:	b1 09       	sbc	r27, r1
    29bc:	89 2f       	mov	r24, r25
    29be:	9a 2f       	mov	r25, r26
    29c0:	ab 2f       	mov	r26, r27
    29c2:	bb 27       	eor	r27, r27
    29c4:	f8 01       	movw	r30, r16
    29c6:	80 83       	st	Z, r24
}
    29c8:	0f 90       	pop	r0
    29ca:	0f 90       	pop	r0
    29cc:	cf 91       	pop	r28
    29ce:	df 91       	pop	r29
    29d0:	1f 91       	pop	r17
    29d2:	0f 91       	pop	r16
    29d4:	08 95       	ret

000029d6 <UART0_sendByte>:
          -  Function to send a byte
          -  1. Receive desired byte to be sent
          -  2. Use Polling method
          ----------------------------------------------------*/
void UART0_sendByte (const uint8 data)
{
    29d6:	df 93       	push	r29
    29d8:	cf 93       	push	r28
    29da:	0f 92       	push	r0
    29dc:	cd b7       	in	r28, 0x3d	; 61
    29de:	de b7       	in	r29, 0x3e	; 62
    29e0:	89 83       	std	Y+1, r24	; 0x01
	/* UDRE0 is 1 when the buffer is empty and ready to receive
	 * new data, So wait until the flag is 1*/
	while (CHECK_CLEAR(UCSR0A,UDRE0)){}
    29e2:	eb e2       	ldi	r30, 0x2B	; 43
    29e4:	f0 e0       	ldi	r31, 0x00	; 0
    29e6:	80 81       	ld	r24, Z
    29e8:	88 2f       	mov	r24, r24
    29ea:	90 e0       	ldi	r25, 0x00	; 0
    29ec:	80 72       	andi	r24, 0x20	; 32
    29ee:	90 70       	andi	r25, 0x00	; 0
    29f0:	00 97       	sbiw	r24, 0x00	; 0
    29f2:	b9 f3       	breq	.-18     	; 0x29e2 <UART0_sendByte+0xc>
	/* Write data into UDR register */
	UDR0 = data;
    29f4:	ec e2       	ldi	r30, 0x2C	; 44
    29f6:	f0 e0       	ldi	r31, 0x00	; 0
    29f8:	89 81       	ldd	r24, Y+1	; 0x01
    29fa:	80 83       	st	Z, r24
}
    29fc:	0f 90       	pop	r0
    29fe:	cf 91       	pop	r28
    2a00:	df 91       	pop	r29
    2a02:	08 95       	ret

00002a04 <UART0_receiveByte>:
          -  Function to receive a byte
          -  1. Return data into UDR
          -  2. Use Polling method
          ----------------------------------------------------*/
uint8 UART0_receiveByte (void)
{
    2a04:	df 93       	push	r29
    2a06:	cf 93       	push	r28
    2a08:	cd b7       	in	r28, 0x3d	; 61
    2a0a:	de b7       	in	r29, 0x3e	; 62
	/* RXC0 is 1 when there are unread in a receive buffer
	 * (Receive Completed), So wait until the flag is 1*/
	while (CHECK_CLEAR(UCSR0A,RXC0)){}
    2a0c:	eb e2       	ldi	r30, 0x2B	; 43
    2a0e:	f0 e0       	ldi	r31, 0x00	; 0
    2a10:	80 81       	ld	r24, Z
    2a12:	88 23       	and	r24, r24
    2a14:	dc f7       	brge	.-10     	; 0x2a0c <UART0_receiveByte+0x8>
	/* return data from UDR register */
	return UDR0;
    2a16:	ec e2       	ldi	r30, 0x2C	; 44
    2a18:	f0 e0       	ldi	r31, 0x00	; 0
    2a1a:	80 81       	ld	r24, Z
}
    2a1c:	cf 91       	pop	r28
    2a1e:	df 91       	pop	r29
    2a20:	08 95       	ret

00002a22 <UART0_sendString>:
         /*------------------- Description --------------------
           -  Function to send a String
           -  1. Receive desired string to be sent into pointer
           ----------------------------------------------------*/
void UART0_sendString (const uint8 *str)
{
    2a22:	df 93       	push	r29
    2a24:	cf 93       	push	r28
    2a26:	00 d0       	rcall	.+0      	; 0x2a28 <UART0_sendString+0x6>
    2a28:	cd b7       	in	r28, 0x3d	; 61
    2a2a:	de b7       	in	r29, 0x3e	; 62
    2a2c:	9a 83       	std	Y+2, r25	; 0x02
    2a2e:	89 83       	std	Y+1, r24	; 0x01
    2a30:	0a c0       	rjmp	.+20     	; 0x2a46 <UART0_sendString+0x24>
	while (*str != '\0')
	{
		UART0_sendByte(*str);
    2a32:	e9 81       	ldd	r30, Y+1	; 0x01
    2a34:	fa 81       	ldd	r31, Y+2	; 0x02
    2a36:	80 81       	ld	r24, Z
    2a38:	0e 94 eb 14 	call	0x29d6	; 0x29d6 <UART0_sendByte>
		str++;
    2a3c:	89 81       	ldd	r24, Y+1	; 0x01
    2a3e:	9a 81       	ldd	r25, Y+2	; 0x02
    2a40:	01 96       	adiw	r24, 0x01	; 1
    2a42:	9a 83       	std	Y+2, r25	; 0x02
    2a44:	89 83       	std	Y+1, r24	; 0x01
           -  Function to send a String
           -  1. Receive desired string to be sent into pointer
           ----------------------------------------------------*/
void UART0_sendString (const uint8 *str)
{
	while (*str != '\0')
    2a46:	e9 81       	ldd	r30, Y+1	; 0x01
    2a48:	fa 81       	ldd	r31, Y+2	; 0x02
    2a4a:	80 81       	ld	r24, Z
    2a4c:	88 23       	and	r24, r24
    2a4e:	89 f7       	brne	.-30     	; 0x2a32 <UART0_sendString+0x10>
	{
		UART0_sendByte(*str);
		str++;
	}
}
    2a50:	0f 90       	pop	r0
    2a52:	0f 90       	pop	r0
    2a54:	cf 91       	pop	r28
    2a56:	df 91       	pop	r29
    2a58:	08 95       	ret

00002a5a <UART0_receiveString>:
         -  Function to receive a String
         -  1. Receive desired string to be sent into pointer
         -  2. Use Polling method
         ----------------------------------------------------*/
void UART0_receiveString (uint8 *str)
{
    2a5a:	df 93       	push	r29
    2a5c:	cf 93       	push	r28
    2a5e:	00 d0       	rcall	.+0      	; 0x2a60 <UART0_receiveString+0x6>
    2a60:	cd b7       	in	r28, 0x3d	; 61
    2a62:	de b7       	in	r29, 0x3e	; 62
    2a64:	9a 83       	std	Y+2, r25	; 0x02
    2a66:	89 83       	std	Y+1, r24	; 0x01
	str = UART0_receiveByte;
    2a68:	82 e0       	ldi	r24, 0x02	; 2
    2a6a:	95 e1       	ldi	r25, 0x15	; 21
    2a6c:	9a 83       	std	Y+2, r25	; 0x02
    2a6e:	89 83       	std	Y+1, r24	; 0x01
    2a70:	09 c0       	rjmp	.+18     	; 0x2a84 <UART0_receiveString+0x2a>
	while (*str != '#')
	{
		str++;
    2a72:	89 81       	ldd	r24, Y+1	; 0x01
    2a74:	9a 81       	ldd	r25, Y+2	; 0x02
    2a76:	01 96       	adiw	r24, 0x01	; 1
    2a78:	9a 83       	std	Y+2, r25	; 0x02
    2a7a:	89 83       	std	Y+1, r24	; 0x01
		str = UART0_receiveByte;
    2a7c:	82 e0       	ldi	r24, 0x02	; 2
    2a7e:	95 e1       	ldi	r25, 0x15	; 21
    2a80:	9a 83       	std	Y+2, r25	; 0x02
    2a82:	89 83       	std	Y+1, r24	; 0x01
         -  2. Use Polling method
         ----------------------------------------------------*/
void UART0_receiveString (uint8 *str)
{
	str = UART0_receiveByte;
	while (*str != '#')
    2a84:	e9 81       	ldd	r30, Y+1	; 0x01
    2a86:	fa 81       	ldd	r31, Y+2	; 0x02
    2a88:	80 81       	ld	r24, Z
    2a8a:	83 32       	cpi	r24, 0x23	; 35
    2a8c:	91 f7       	brne	.-28     	; 0x2a72 <UART0_receiveString+0x18>
	{
		str++;
		str = UART0_receiveByte;
	}
	str = '\0';
    2a8e:	1a 82       	std	Y+2, r1	; 0x02
    2a90:	19 82       	std	Y+1, r1	; 0x01
}
    2a92:	0f 90       	pop	r0
    2a94:	0f 90       	pop	r0
    2a96:	cf 91       	pop	r28
    2a98:	df 91       	pop	r29
    2a9a:	08 95       	ret

00002a9c <UART1_init>:
          -  2. Select stop bit.
          -  3. Select data size.
          -  4. Set baud rate.
          ----------------------------------------------------*/
void UART1_init (const UART_ConfigType *config_ptr)
{
    2a9c:	0f 93       	push	r16
    2a9e:	1f 93       	push	r17
    2aa0:	df 93       	push	r29
    2aa2:	cf 93       	push	r28
    2aa4:	00 d0       	rcall	.+0      	; 0x2aa6 <UART1_init+0xa>
    2aa6:	cd b7       	in	r28, 0x3d	; 61
    2aa8:	de b7       	in	r29, 0x3e	; 62
    2aaa:	9a 83       	std	Y+2, r25	; 0x02
    2aac:	89 83       	std	Y+1, r24	; 0x01
	/* U2X1 = 1 for double transmission speed for Asynchronous */
	UCSR1A = (1<<U2X1);
    2aae:	eb e9       	ldi	r30, 0x9B	; 155
    2ab0:	f0 e0       	ldi	r31, 0x00	; 0
    2ab2:	82 e0       	ldi	r24, 0x02	; 2
    2ab4:	80 83       	st	Z, r24
	 - UDRIE1 = 0 Disable Data Register Empty Interrupt Enable
	 - RXEN1  = 1 Receiver Enable
	 - TXEN1  = 1 Transmitter Enable
	 - UCSZ12 & RXB81 & TXB81 Used for 9-bit data mode
     ----------------------------------------------------------*/
	UCSR1B = (1<<RXEN1) | (1<<TXEN1);
    2ab6:	ea e9       	ldi	r30, 0x9A	; 154
    2ab8:	f0 e0       	ldi	r31, 0x00	; 0
    2aba:	88 e1       	ldi	r24, 0x18	; 24
    2abc:	80 83       	st	Z, r24

	if ((config_ptr -> data_size) == 7)
    2abe:	e9 81       	ldd	r30, Y+1	; 0x01
    2ac0:	fa 81       	ldd	r31, Y+2	; 0x02
    2ac2:	82 81       	ldd	r24, Z+2	; 0x02
    2ac4:	87 30       	cpi	r24, 0x07	; 7
    2ac6:	39 f4       	brne	.+14     	; 0x2ad6 <UART1_init+0x3a>
	{
	UCSR1B |= (1<<UCSZ12) | (1<<RXB81) | (1<<TXB81);
    2ac8:	aa e9       	ldi	r26, 0x9A	; 154
    2aca:	b0 e0       	ldi	r27, 0x00	; 0
    2acc:	ea e9       	ldi	r30, 0x9A	; 154
    2ace:	f0 e0       	ldi	r31, 0x00	; 0
    2ad0:	80 81       	ld	r24, Z
    2ad2:	87 60       	ori	r24, 0x07	; 7
    2ad4:	8c 93       	st	X, r24
	 - UPM11:0    Parity Mode Selected
	 - USB1S      Stop Bit Selected
	 - UCPOL1   = 0 (Used with the Synchronous operation only)
	 - UCSZ11:0   Data Size Selected
     ----------------------------------------------------------*/
	UCSR0C = ((config_ptr -> parity_mode)  <<UPM10) |
    2ad6:	a5 e9       	ldi	r26, 0x95	; 149
    2ad8:	b0 e0       	ldi	r27, 0x00	; 0
    2ada:	e9 81       	ldd	r30, Y+1	; 0x01
    2adc:	fa 81       	ldd	r31, Y+2	; 0x02
    2ade:	80 81       	ld	r24, Z
    2ae0:	88 2f       	mov	r24, r24
    2ae2:	90 e0       	ldi	r25, 0x00	; 0
    2ae4:	82 95       	swap	r24
    2ae6:	92 95       	swap	r25
    2ae8:	90 7f       	andi	r25, 0xF0	; 240
    2aea:	98 27       	eor	r25, r24
    2aec:	80 7f       	andi	r24, 0xF0	; 240
    2aee:	98 27       	eor	r25, r24
    2af0:	28 2f       	mov	r18, r24
    2af2:	e9 81       	ldd	r30, Y+1	; 0x01
    2af4:	fa 81       	ldd	r31, Y+2	; 0x02
    2af6:	81 81       	ldd	r24, Z+1	; 0x01
    2af8:	88 2f       	mov	r24, r24
    2afa:	90 e0       	ldi	r25, 0x00	; 0
    2afc:	88 0f       	add	r24, r24
    2afe:	99 1f       	adc	r25, r25
    2b00:	88 0f       	add	r24, r24
    2b02:	99 1f       	adc	r25, r25
    2b04:	88 0f       	add	r24, r24
    2b06:	99 1f       	adc	r25, r25
    2b08:	28 2b       	or	r18, r24
    2b0a:	e9 81       	ldd	r30, Y+1	; 0x01
    2b0c:	fa 81       	ldd	r31, Y+2	; 0x02
    2b0e:	82 81       	ldd	r24, Z+2	; 0x02
    2b10:	88 2f       	mov	r24, r24
    2b12:	90 e0       	ldi	r25, 0x00	; 0
    2b14:	83 70       	andi	r24, 0x03	; 3
    2b16:	90 70       	andi	r25, 0x00	; 0
    2b18:	88 0f       	add	r24, r24
    2b1a:	99 1f       	adc	r25, r25
    2b1c:	82 2b       	or	r24, r18
    2b1e:	8c 93       	st	X, r24

	/*Equation for calculating UBRR depending on baud rate
	 - UBRR1L for the least 8-bits
	 - UBBR1H for the most 4-bits
	 */
	UBRR1L = (((F_CPU/((config_ptr -> baud_rate) * 8))-1));
    2b20:	09 e9       	ldi	r16, 0x99	; 153
    2b22:	10 e0       	ldi	r17, 0x00	; 0
    2b24:	e9 81       	ldd	r30, Y+1	; 0x01
    2b26:	fa 81       	ldd	r31, Y+2	; 0x02
    2b28:	83 81       	ldd	r24, Z+3	; 0x03
    2b2a:	94 81       	ldd	r25, Z+4	; 0x04
    2b2c:	a5 81       	ldd	r26, Z+5	; 0x05
    2b2e:	b6 81       	ldd	r27, Z+6	; 0x06
    2b30:	88 0f       	add	r24, r24
    2b32:	99 1f       	adc	r25, r25
    2b34:	aa 1f       	adc	r26, r26
    2b36:	bb 1f       	adc	r27, r27
    2b38:	88 0f       	add	r24, r24
    2b3a:	99 1f       	adc	r25, r25
    2b3c:	aa 1f       	adc	r26, r26
    2b3e:	bb 1f       	adc	r27, r27
    2b40:	88 0f       	add	r24, r24
    2b42:	99 1f       	adc	r25, r25
    2b44:	aa 1f       	adc	r26, r26
    2b46:	bb 1f       	adc	r27, r27
    2b48:	9c 01       	movw	r18, r24
    2b4a:	ad 01       	movw	r20, r26
    2b4c:	80 e0       	ldi	r24, 0x00	; 0
    2b4e:	94 e2       	ldi	r25, 0x24	; 36
    2b50:	a4 ef       	ldi	r26, 0xF4	; 244
    2b52:	b0 e0       	ldi	r27, 0x00	; 0
    2b54:	bc 01       	movw	r22, r24
    2b56:	cd 01       	movw	r24, r26
    2b58:	0e 94 46 16 	call	0x2c8c	; 0x2c8c <__udivmodsi4>
    2b5c:	da 01       	movw	r26, r20
    2b5e:	c9 01       	movw	r24, r18
    2b60:	81 50       	subi	r24, 0x01	; 1
    2b62:	f8 01       	movw	r30, r16
    2b64:	80 83       	st	Z, r24
	UBRR1H = ((((F_CPU/((config_ptr -> baud_rate) * 8))-1)) >> 8);
    2b66:	08 e9       	ldi	r16, 0x98	; 152
    2b68:	10 e0       	ldi	r17, 0x00	; 0
    2b6a:	e9 81       	ldd	r30, Y+1	; 0x01
    2b6c:	fa 81       	ldd	r31, Y+2	; 0x02
    2b6e:	83 81       	ldd	r24, Z+3	; 0x03
    2b70:	94 81       	ldd	r25, Z+4	; 0x04
    2b72:	a5 81       	ldd	r26, Z+5	; 0x05
    2b74:	b6 81       	ldd	r27, Z+6	; 0x06
    2b76:	88 0f       	add	r24, r24
    2b78:	99 1f       	adc	r25, r25
    2b7a:	aa 1f       	adc	r26, r26
    2b7c:	bb 1f       	adc	r27, r27
    2b7e:	88 0f       	add	r24, r24
    2b80:	99 1f       	adc	r25, r25
    2b82:	aa 1f       	adc	r26, r26
    2b84:	bb 1f       	adc	r27, r27
    2b86:	88 0f       	add	r24, r24
    2b88:	99 1f       	adc	r25, r25
    2b8a:	aa 1f       	adc	r26, r26
    2b8c:	bb 1f       	adc	r27, r27
    2b8e:	9c 01       	movw	r18, r24
    2b90:	ad 01       	movw	r20, r26
    2b92:	80 e0       	ldi	r24, 0x00	; 0
    2b94:	94 e2       	ldi	r25, 0x24	; 36
    2b96:	a4 ef       	ldi	r26, 0xF4	; 244
    2b98:	b0 e0       	ldi	r27, 0x00	; 0
    2b9a:	bc 01       	movw	r22, r24
    2b9c:	cd 01       	movw	r24, r26
    2b9e:	0e 94 46 16 	call	0x2c8c	; 0x2c8c <__udivmodsi4>
    2ba2:	da 01       	movw	r26, r20
    2ba4:	c9 01       	movw	r24, r18
    2ba6:	01 97       	sbiw	r24, 0x01	; 1
    2ba8:	a1 09       	sbc	r26, r1
    2baa:	b1 09       	sbc	r27, r1
    2bac:	89 2f       	mov	r24, r25
    2bae:	9a 2f       	mov	r25, r26
    2bb0:	ab 2f       	mov	r26, r27
    2bb2:	bb 27       	eor	r27, r27
    2bb4:	f8 01       	movw	r30, r16
    2bb6:	80 83       	st	Z, r24
}
    2bb8:	0f 90       	pop	r0
    2bba:	0f 90       	pop	r0
    2bbc:	cf 91       	pop	r28
    2bbe:	df 91       	pop	r29
    2bc0:	1f 91       	pop	r17
    2bc2:	0f 91       	pop	r16
    2bc4:	08 95       	ret

00002bc6 <UART1_sendByte>:
          -  Function to send a byte
          -  1. Receive desired byte to be sent
          -  2. Use Polling method
          ----------------------------------------------------*/
void UART1_sendByte (const uint8 data)
{
    2bc6:	df 93       	push	r29
    2bc8:	cf 93       	push	r28
    2bca:	0f 92       	push	r0
    2bcc:	cd b7       	in	r28, 0x3d	; 61
    2bce:	de b7       	in	r29, 0x3e	; 62
    2bd0:	89 83       	std	Y+1, r24	; 0x01
	/* UDRE1 is 1 when the buffer is empty and ready to receive
	 * new data, So wait until the flag is 1*/
	while (CHECK_CLEAR(UCSR1A,UDRE1)){}
    2bd2:	eb e9       	ldi	r30, 0x9B	; 155
    2bd4:	f0 e0       	ldi	r31, 0x00	; 0
    2bd6:	80 81       	ld	r24, Z
    2bd8:	88 2f       	mov	r24, r24
    2bda:	90 e0       	ldi	r25, 0x00	; 0
    2bdc:	80 72       	andi	r24, 0x20	; 32
    2bde:	90 70       	andi	r25, 0x00	; 0
    2be0:	00 97       	sbiw	r24, 0x00	; 0
    2be2:	b9 f3       	breq	.-18     	; 0x2bd2 <UART1_sendByte+0xc>
	/* Write data into UDR register */
	UDR1 = data;
    2be4:	ec e9       	ldi	r30, 0x9C	; 156
    2be6:	f0 e0       	ldi	r31, 0x00	; 0
    2be8:	89 81       	ldd	r24, Y+1	; 0x01
    2bea:	80 83       	st	Z, r24
}
    2bec:	0f 90       	pop	r0
    2bee:	cf 91       	pop	r28
    2bf0:	df 91       	pop	r29
    2bf2:	08 95       	ret

00002bf4 <UART1_receiveByte>:
          -  Function to receive a byte
          -  1. Return data into UDR
          -  2. Use Polling method
          ----------------------------------------------------*/
uint8 UART1_receiveByte (void)
{
    2bf4:	df 93       	push	r29
    2bf6:	cf 93       	push	r28
    2bf8:	cd b7       	in	r28, 0x3d	; 61
    2bfa:	de b7       	in	r29, 0x3e	; 62
	/* RXC1 is 1 when there are unread in a receive buffer
	 * (Receive Completed), So wait until the flag is 1*/
	while (CHECK_CLEAR(UCSR1A,RXC1)){}
    2bfc:	eb e9       	ldi	r30, 0x9B	; 155
    2bfe:	f0 e0       	ldi	r31, 0x00	; 0
    2c00:	80 81       	ld	r24, Z
    2c02:	88 23       	and	r24, r24
    2c04:	dc f7       	brge	.-10     	; 0x2bfc <UART1_receiveByte+0x8>
	/* return data from UDR register */
	return UDR1;
    2c06:	ec e9       	ldi	r30, 0x9C	; 156
    2c08:	f0 e0       	ldi	r31, 0x00	; 0
    2c0a:	80 81       	ld	r24, Z
}
    2c0c:	cf 91       	pop	r28
    2c0e:	df 91       	pop	r29
    2c10:	08 95       	ret

00002c12 <UART1_sendString>:
         /*------------------- Description --------------------
           -  Function to send a String
           -  1. Receive desired string to be sent into pointer
           ----------------------------------------------------*/
void UART1_sendString (const uint8 *str)
{
    2c12:	df 93       	push	r29
    2c14:	cf 93       	push	r28
    2c16:	00 d0       	rcall	.+0      	; 0x2c18 <UART1_sendString+0x6>
    2c18:	cd b7       	in	r28, 0x3d	; 61
    2c1a:	de b7       	in	r29, 0x3e	; 62
    2c1c:	9a 83       	std	Y+2, r25	; 0x02
    2c1e:	89 83       	std	Y+1, r24	; 0x01
    2c20:	0a c0       	rjmp	.+20     	; 0x2c36 <UART1_sendString+0x24>
	while (*str != '\0')
	{
		UART1_sendByte(*str);
    2c22:	e9 81       	ldd	r30, Y+1	; 0x01
    2c24:	fa 81       	ldd	r31, Y+2	; 0x02
    2c26:	80 81       	ld	r24, Z
    2c28:	0e 94 e3 15 	call	0x2bc6	; 0x2bc6 <UART1_sendByte>
		str++;
    2c2c:	89 81       	ldd	r24, Y+1	; 0x01
    2c2e:	9a 81       	ldd	r25, Y+2	; 0x02
    2c30:	01 96       	adiw	r24, 0x01	; 1
    2c32:	9a 83       	std	Y+2, r25	; 0x02
    2c34:	89 83       	std	Y+1, r24	; 0x01
           -  Function to send a String
           -  1. Receive desired string to be sent into pointer
           ----------------------------------------------------*/
void UART1_sendString (const uint8 *str)
{
	while (*str != '\0')
    2c36:	e9 81       	ldd	r30, Y+1	; 0x01
    2c38:	fa 81       	ldd	r31, Y+2	; 0x02
    2c3a:	80 81       	ld	r24, Z
    2c3c:	88 23       	and	r24, r24
    2c3e:	89 f7       	brne	.-30     	; 0x2c22 <UART1_sendString+0x10>
	{
		UART1_sendByte(*str);
		str++;
	}
}
    2c40:	0f 90       	pop	r0
    2c42:	0f 90       	pop	r0
    2c44:	cf 91       	pop	r28
    2c46:	df 91       	pop	r29
    2c48:	08 95       	ret

00002c4a <UART1_receiveString>:
         -  Function to receive a String
         -  1. Receive desired string to be sent into pointer
         -  2. Use Polling method
         ----------------------------------------------------*/
void UART1_receiveString (uint8 *str)
{
    2c4a:	df 93       	push	r29
    2c4c:	cf 93       	push	r28
    2c4e:	00 d0       	rcall	.+0      	; 0x2c50 <UART1_receiveString+0x6>
    2c50:	cd b7       	in	r28, 0x3d	; 61
    2c52:	de b7       	in	r29, 0x3e	; 62
    2c54:	9a 83       	std	Y+2, r25	; 0x02
    2c56:	89 83       	std	Y+1, r24	; 0x01
	str = UART1_receiveByte;
    2c58:	8a ef       	ldi	r24, 0xFA	; 250
    2c5a:	95 e1       	ldi	r25, 0x15	; 21
    2c5c:	9a 83       	std	Y+2, r25	; 0x02
    2c5e:	89 83       	std	Y+1, r24	; 0x01
    2c60:	09 c0       	rjmp	.+18     	; 0x2c74 <UART1_receiveString+0x2a>
	while (*str != '#')
	{
		str++;
    2c62:	89 81       	ldd	r24, Y+1	; 0x01
    2c64:	9a 81       	ldd	r25, Y+2	; 0x02
    2c66:	01 96       	adiw	r24, 0x01	; 1
    2c68:	9a 83       	std	Y+2, r25	; 0x02
    2c6a:	89 83       	std	Y+1, r24	; 0x01
		str = UART1_receiveByte;
    2c6c:	8a ef       	ldi	r24, 0xFA	; 250
    2c6e:	95 e1       	ldi	r25, 0x15	; 21
    2c70:	9a 83       	std	Y+2, r25	; 0x02
    2c72:	89 83       	std	Y+1, r24	; 0x01
         -  2. Use Polling method
         ----------------------------------------------------*/
void UART1_receiveString (uint8 *str)
{
	str = UART1_receiveByte;
	while (*str != '#')
    2c74:	e9 81       	ldd	r30, Y+1	; 0x01
    2c76:	fa 81       	ldd	r31, Y+2	; 0x02
    2c78:	80 81       	ld	r24, Z
    2c7a:	83 32       	cpi	r24, 0x23	; 35
    2c7c:	91 f7       	brne	.-28     	; 0x2c62 <UART1_receiveString+0x18>
	{
		str++;
		str = UART1_receiveByte;
	}
	str = '\0';
    2c7e:	1a 82       	std	Y+2, r1	; 0x02
    2c80:	19 82       	std	Y+1, r1	; 0x01
}
    2c82:	0f 90       	pop	r0
    2c84:	0f 90       	pop	r0
    2c86:	cf 91       	pop	r28
    2c88:	df 91       	pop	r29
    2c8a:	08 95       	ret

00002c8c <__udivmodsi4>:
    2c8c:	a1 e2       	ldi	r26, 0x21	; 33
    2c8e:	1a 2e       	mov	r1, r26
    2c90:	aa 1b       	sub	r26, r26
    2c92:	bb 1b       	sub	r27, r27
    2c94:	fd 01       	movw	r30, r26
    2c96:	0d c0       	rjmp	.+26     	; 0x2cb2 <__udivmodsi4_ep>

00002c98 <__udivmodsi4_loop>:
    2c98:	aa 1f       	adc	r26, r26
    2c9a:	bb 1f       	adc	r27, r27
    2c9c:	ee 1f       	adc	r30, r30
    2c9e:	ff 1f       	adc	r31, r31
    2ca0:	a2 17       	cp	r26, r18
    2ca2:	b3 07       	cpc	r27, r19
    2ca4:	e4 07       	cpc	r30, r20
    2ca6:	f5 07       	cpc	r31, r21
    2ca8:	20 f0       	brcs	.+8      	; 0x2cb2 <__udivmodsi4_ep>
    2caa:	a2 1b       	sub	r26, r18
    2cac:	b3 0b       	sbc	r27, r19
    2cae:	e4 0b       	sbc	r30, r20
    2cb0:	f5 0b       	sbc	r31, r21

00002cb2 <__udivmodsi4_ep>:
    2cb2:	66 1f       	adc	r22, r22
    2cb4:	77 1f       	adc	r23, r23
    2cb6:	88 1f       	adc	r24, r24
    2cb8:	99 1f       	adc	r25, r25
    2cba:	1a 94       	dec	r1
    2cbc:	69 f7       	brne	.-38     	; 0x2c98 <__udivmodsi4_loop>
    2cbe:	60 95       	com	r22
    2cc0:	70 95       	com	r23
    2cc2:	80 95       	com	r24
    2cc4:	90 95       	com	r25
    2cc6:	9b 01       	movw	r18, r22
    2cc8:	ac 01       	movw	r20, r24
    2cca:	bd 01       	movw	r22, r26
    2ccc:	cf 01       	movw	r24, r30
    2cce:	08 95       	ret

00002cd0 <__prologue_saves__>:
    2cd0:	2f 92       	push	r2
    2cd2:	3f 92       	push	r3
    2cd4:	4f 92       	push	r4
    2cd6:	5f 92       	push	r5
    2cd8:	6f 92       	push	r6
    2cda:	7f 92       	push	r7
    2cdc:	8f 92       	push	r8
    2cde:	9f 92       	push	r9
    2ce0:	af 92       	push	r10
    2ce2:	bf 92       	push	r11
    2ce4:	cf 92       	push	r12
    2ce6:	df 92       	push	r13
    2ce8:	ef 92       	push	r14
    2cea:	ff 92       	push	r15
    2cec:	0f 93       	push	r16
    2cee:	1f 93       	push	r17
    2cf0:	cf 93       	push	r28
    2cf2:	df 93       	push	r29
    2cf4:	cd b7       	in	r28, 0x3d	; 61
    2cf6:	de b7       	in	r29, 0x3e	; 62
    2cf8:	ca 1b       	sub	r28, r26
    2cfa:	db 0b       	sbc	r29, r27
    2cfc:	0f b6       	in	r0, 0x3f	; 63
    2cfe:	f8 94       	cli
    2d00:	de bf       	out	0x3e, r29	; 62
    2d02:	0f be       	out	0x3f, r0	; 63
    2d04:	cd bf       	out	0x3d, r28	; 61
    2d06:	09 94       	ijmp

00002d08 <__epilogue_restores__>:
    2d08:	2a 88       	ldd	r2, Y+18	; 0x12
    2d0a:	39 88       	ldd	r3, Y+17	; 0x11
    2d0c:	48 88       	ldd	r4, Y+16	; 0x10
    2d0e:	5f 84       	ldd	r5, Y+15	; 0x0f
    2d10:	6e 84       	ldd	r6, Y+14	; 0x0e
    2d12:	7d 84       	ldd	r7, Y+13	; 0x0d
    2d14:	8c 84       	ldd	r8, Y+12	; 0x0c
    2d16:	9b 84       	ldd	r9, Y+11	; 0x0b
    2d18:	aa 84       	ldd	r10, Y+10	; 0x0a
    2d1a:	b9 84       	ldd	r11, Y+9	; 0x09
    2d1c:	c8 84       	ldd	r12, Y+8	; 0x08
    2d1e:	df 80       	ldd	r13, Y+7	; 0x07
    2d20:	ee 80       	ldd	r14, Y+6	; 0x06
    2d22:	fd 80       	ldd	r15, Y+5	; 0x05
    2d24:	0c 81       	ldd	r16, Y+4	; 0x04
    2d26:	1b 81       	ldd	r17, Y+3	; 0x03
    2d28:	aa 81       	ldd	r26, Y+2	; 0x02
    2d2a:	b9 81       	ldd	r27, Y+1	; 0x01
    2d2c:	ce 0f       	add	r28, r30
    2d2e:	d1 1d       	adc	r29, r1
    2d30:	0f b6       	in	r0, 0x3f	; 63
    2d32:	f8 94       	cli
    2d34:	de bf       	out	0x3e, r29	; 62
    2d36:	0f be       	out	0x3f, r0	; 63
    2d38:	cd bf       	out	0x3d, r28	; 61
    2d3a:	ed 01       	movw	r28, r26
    2d3c:	08 95       	ret

00002d3e <_exit>:
    2d3e:	f8 94       	cli

00002d40 <__stop_program>:
    2d40:	ff cf       	rjmp	.-2      	; 0x2d40 <__stop_program>
